(lp1
(lp2
(I6
(lp3
I0
aI1
a(lp4
I12
aI13
atp5
aa(lp6
(I3
(lp7
I1
aI2
a(lp8
I24
atp9
aa(lp10
(I2
(lp11
I5
aI6
aI7
a(lp12
I9
atp13
a(I2
g11
(lp14
I14
aI15
atp15
aa(lp16
(I3
(lp17
I0
a(lp18
I2
atp19
aa(lp20
(I4
(lp21
I1
a(lp22
I2
aI3
atp23
aa(lp24
(I8
(lp25
I0
aI1
a(lp26
I3
aI4
atp27
aa(lp28
(I3
(lp29
I0
a(lp30
I2
atp31
a(I4
g29
(lp32
I4
atp33
a(I4
g30
g32
tp34
aa(lp35
(I7
(lp36
I0
aI1
a(lp37
I4
aI5
aI6
aI7
aI8
aI9
atp38
a(I6
g36
(lp39
I11
atp40
a(I2
g37
g39
tp41
aa(lp42
(I8
(lp43
I40
aI41
aI42
a(lp44
I44
aI45
atp45
aa(lp46
(I6
(lp47
I1
aI2
a(lp48
I12
atp49
a(I6
g47
(lp50
I14
atp51
a(I3
g48
g50
tp52
aa(lp53
(I6
(lp54
I0
aI1
aI2
a(lp55
I8
aI9
aI10
atp56
aa(lp57
(I2
(lp58
I9
aI10
aI11
aI12
a(lp59
I37
atp60
a(I8
g58
(lp61
I40
aI41
atp62
a(I1
g59
g61
tp63
aa(lp64
(I3
(lp65
I11
aI12
a(lp66
I21
aI22
atp67
aa(lp68
(I7
(lp69
I0
a(lp70
I2
atp71
aa(lp72
(I1
(lp73
I0
a(lp74
I2
atp75
a(I6
g74
(lp76
I9
atp77
aa(lp78
(I6
(lp79
I11
aI12
aI13
a(lp80
I18
aI19
aI20
aI21
atp81
aa(lp82
(I3
(lp83
I0
a(lp84
I2
atp85
a(I4
g83
(lp86
I4
atp87
a(I4
g84
g86
tp88
aa(lp89
(I3
(lp90
I0
a(lp91
I2
atp92
a(I4
g90
(lp93
I4
atp94
a(I4
g91
g93
tp95
aa(lp96
(I9
(lp97
I0
aI1
aI2
a(lp98
I11
atp99
aa(lp100
(I3
(lp101
I0
aI1
a(lp102
I3
aI4
atp103
aa(lp104
(I9
(lp105
I8
aI9
aI10
a(lp106
I16
atp107
aa(lp108
(I9
(lp109
I16
aI17
aI18
a(lp110
I25
aI26
atp111
aa(lp112
(I7
(lp113
I14
aI15
a(lp114
I22
aI23
atp115
aa(lp116
(I6
(lp117
I1
a(lp118
I36
aI37
atp119
a(I6
g117
(lp120
I40
atp121
a(I6
(lp122
I5
ag118
tp123
a(I6
g122
g120
tp124
a(I6
(lp125
I9
ag118
tp126
a(I6
g125
g120
tp127
a(I6
(lp128
I14
ag118
tp129
a(I6
g128
g120
tp130
a(I3
g118
g120
tp131
aa(lp132
(I4
(lp133
I1
a(lp134
I2
aI3
aI4
atp135
aa(lp136
(I1
(lp137
I9
a(lp138
I14
aI15
atp139
aa(lp140
(I4
(lp141
I0
a(lp142
I1
aI2
atp143
aa(lp144
(I9
(lp145
I3
aI4
a(lp146
I9
aI10
aI11
aI12
aI13
atp147
aa(lp148
(I6
(lp149
I2
aI3
a(lp150
I5
atp151
aa(lp152
(I6
(lp153
I14
a(lp154
I39
aI40
atp155
aa(lp156
(I3
(lp157
I14
aI15
a(lp158
I17
atp159
aa(lp160
(I9
(lp161
I24
aI25
a(lp162
I30
aI31
aI32
atp163
aa(lp164
(I10
(lp165
I31
a(lp166
I37
aI38
aI39
atp167
aa(lp168
(I9
(lp169
I0
a(lp170
I3
atp171
aa(lp172
(I8
(lp173
I24
aI25
aI26
a(lp174
I28
aI29
atp175
aa(lp176
(I3
(lp177
I0
a(lp178
I2
atp179
a(I4
g177
(lp180
I4
atp181
a(I4
g178
g180
tp182
aa(lp183
(I3
(lp184
I3
aI4
a(lp185
I7
aI8
atp186
aa(lp187
(I9
(lp188
I1
aI2
aI3
a(lp189
I7
aI8
atp190
aa(lp191
(I8
(lp192
I13
a(lp193
I15
aI16
atp194
aa(lp195
(I6
(lp196
I5
aI6
a(lp197
I10
aI11
aI12
atp198
aa(lp199
(I5
(lp200
I1
aI2
aI3
a(lp201
I18
aI19
atp202
a(I1
g200
(lp203
I28
aI29
atp204
aa(lp205
(I4
(lp206
I1
a(lp207
I2
aI3
atp208
aa(lp209
(I3
(lp210
I0
aI1
a(lp211
I3
atp212
aa(lp213
(I3
(lp214
I10
aI11
a(lp215
I13
aI14
atp216
aa(lp217
(I7
(lp218
I0
aI1
a(lp219
I5
aI6
atp220
aa(lp221
(I9
(lp222
I23
aI24
aI25
a(lp223
I32
aI33
atp224
aa(lp225
(I10
(lp226
I6
aI7
a(lp227
I19
aI20
atp228
aa(lp229
(I3
(lp230
I57
a(lp231
I59
atp232
aa(lp233
(I5
(lp234
I54
a(lp235
I58
atp236
aa(lp237
(I2
(lp238
I4
aI5
a(lp239
I26
atp240
a(I2
(lp241
I13
ag239
tp242
aa(lp243
(I4
(lp244
I1
a(lp245
I2
aI3
aI4
atp246
aa(lp247
(I6
(lp248
I3
aI4
aI5
a(lp249
I18
aI19
aI20
aI21
atp250
aa(lp251
(I9
(lp252
I27
aI28
a(lp253
I38
aI39
aI40
atp254
aa(lp255
(I2
(lp256
I1
aI2
aI3
a(lp257
I5
aI6
atp258
a(I2
g256
(lp259
I8
atp260
a(I3
g257
g259
tp261
aa(lp262
(I1
(lp263
I0
a(lp264
I4
aI5
atp265
aa(lp266
(I6
(lp267
I5
aI6
a(lp268
I10
aI11
aI12
atp269
aa(lp270
(I3
(lp271
I17
aI18
aI19
aI20
a(lp272
I22
atp273
a(I3
g271
(lp274
I24
atp275
a(I3
g272
g274
tp276
aa(lp277
(I9
(lp278
I9
aI10
a(lp279
I20
aI21
aI22
atp280
a(I3
(lp281
I24
a(lp282
I26
atp283
aa(lp284
(I4
(lp285
I23
aI24
a(lp286
I27
atp287
aa(lp288
(I3
(lp289
I31
a(lp290
I33
atp291
aa(lp292
(I6
(lp293
I0
aI1
a(lp294
I19
aI20
aI21
atp295
aa(lp296
(I7
(lp297
I5
aI6
aI7
a(lp298
I11
aI12
aI13
aI14
aI15
aI16
aI17
aI18
aI19
aI20
atp299
aa(lp300
(I9
(lp301
I0
aI1
aI2
a(lp302
I6
atp303
aa(lp304
(I3
(lp305
I6
aI7
aI8
a(lp306
I34
atp307
a(I5
g305
g306
tp308
aa(lp309
(I2
(lp310
I3
aI4
aI5
a(lp311
I8
atp312
a(I2
g310
(lp313
I19
atp314
a(I8
g310
(lp315
I13
aI14
atp316
a(I1
g311
g315
tp317
a(I6
g315
g313
tp318
aa(lp319
(I3
(lp320
I13
a(lp321
I15
atp322
a(I3
(lp323
I21
a(lp324
I23
atp325
aa(lp326
(I6
(lp327
I6
aI7
aI8
a(lp328
I12
aI13
aI14
aI15
atp329
aa(lp330
(I4
(lp331
I0
a(lp332
I1
atp333
aa(lp334
(I8
(lp335
I1
aI2
a(lp336
I8
aI9
atp337
a(I8
(lp338
I4
aI5
aI6
ag336
tp339
aa(lp340
(I4
(lp341
I3
a(lp342
I8
atp343
aa(lp344
(I4
(lp345
I0
a(lp346
I1
aI2
aI3
atp347
aa(lp348
(I7
(lp349
I3
aI4
a(lp350
I9
aI10
aI11
atp351
aa(lp352
(I4
(lp353
I0
a(lp354
I1
atp355
aa(lp356
(I4
(lp357
I30
a(lp358
I38
aI39
aI40
atp359
aa(lp360
(I10
(lp361
I15
aI16
aI17
aI18
a(lp362
I28
atp363
a(I10
g361
(lp364
I30
atp365
aa(lp366
(I10
(lp367
I11
aI12
aI13
aI14
aI15
a(lp368
I17
aI18
aI19
atp369
aa(lp370
(I6
(lp371
I8
aI9
a(lp372
I14
aI15
aI16
atp373
aa(lp374
(I7
(lp375
I16
aI17
a(lp376
I21
atp377
aa(lp378
(I2
(lp379
I9
aI10
aI11
a(lp380
I13
atp381
a(I2
g379
(lp382
I15
atp383
a(I3
g380
g382
tp384
a(I2
(lp385
I22
aI23
a(lp386
I25
atp387
a(I2
g385
(lp388
I27
atp389
a(I3
g386
g388
tp390
aa(lp391
(I6
(lp392
I1
aI2
a(lp393
I5
atp394
aa(lp395
(I1
(lp396
I6
aI7
aI8
a(lp397
I10
atp398
aa(lp399
(I8
(lp400
I35
aI36
aI37
a(lp401
I39
aI40
atp402
a(I8
g400
(lp403
I47
aI48
atp404
a(I8
g400
(lp405
I73
aI74
atp406
a(I8
g400
(lp407
I87
aI88
atp408
aa(lp409
(I3
(lp410
I0
a(lp411
I2
aI3
atp412
aa(lp413
(I3
(lp414
I0
aI1
aI2
a(lp415
I4
atp416
aa(lp417
(I8
(lp418
I16
aI17
a(lp419
I19
aI20
atp420
aa(lp421
(I2
(lp422
I12
aI13
aI14
a(lp423
I16
atp424
a(I2
g422
(lp425
I19
atp426
a(I3
g423
g425
tp427
aa(lp428
(I1
(lp429
I10
a(lp430
I33
aI34
atp431
aa(lp432
(I3
(lp433
I13
aI14
a(lp434
I16
atp435
aa(lp436
(I3
(lp437
I0
aI1
aI2
a(lp438
I4
atp439
a(I3
g437
(lp440
I6
atp441
a(I3
g438
g440
tp442
aa(lp443
(I9
(lp444
I4
aI5
a(lp445
I23
aI24
aI25
aI26
aI27
aI28
aI29
atp446
aa(lp447
(I7
(lp448
I2
aI3
a(lp449
I8
aI9
aI10
atp450
a(I2
g449
(lp451
I12
atp452
aa(lp453
(I2
(lp454
I27
aI28
a(lp455
I36
aI37
aI38
atp456
a(I4
g455
(lp457
I47
atp458
aa(lp459
(I9
(lp460
I15
aI16
aI17
a(lp461
I24
aI25
aI26
aI27
atp462
aa(lp463
(I6
(lp464
I0
aI1
a(lp465
I18
aI19
atp466
aa(lp467
(I7
(lp468
I31
aI32
a(lp469
I39
aI40
aI41
aI42
aI43
atp470
aa(lp471
(I3
(lp472
I0
aI1
a(lp473
I3
aI4
atp474
aa(lp475
(I6
(lp476
I6
aI7
a(lp477
I9
atp478
aa(lp479
(I2
(lp480
I13
aI14
aI15
a(lp481
I17
atp482
aa(lp483
(I5
(lp484
I1
a(lp485
I3
aI4
atp486
aa(lp487
(I4
(lp488
I17
aI18
a(lp489
I22
aI23
atp490
a(I1
g488
(lp491
I25
aI26
atp492
a(I8
g489
g491
tp493
aa(lp494
(I10
(lp495
I8
aI9
a(lp496
I13
aI14
aI15
atp497
aa(lp498
(I1
(lp499
I30
aI31
a(lp500
I33
aI34
aI35
atp501
aa(lp502
(I8
(lp503
I1
a(lp504
I4
aI5
atp505
a(I8
g503
(lp506
I7
aI8
atp507
a(I2
(lp508
I19
aI20
a(lp509
I37
atp510
aa(lp511
(I4
(lp512
I1
a(lp513
I2
atp514
aa(lp515
(I3
(lp516
I22
aI23
aI24
aI25
a(lp517
I27
atp518
aa(lp519
(I4
(lp520
I6
aI7
a(lp521
I11
aI12
atp522
aa(lp523
(I1
(lp524
I14
aI15
a(lp525
I17
aI18
atp526
aa(lp527
(I9
(lp528
I13
aI14
aI15
a(lp529
I20
aI21
aI22
atp530
aa(lp531
(I2
(lp532
I5
aI6
a(lp533
I10
atp534
aa(lp535
(I3
(lp536
I0
a(lp537
I2
atp538
aa(lp539
(I6
(lp540
I4
aI5
aI6
a(lp541
I10
atp542
aa(lp543
(I3
(lp544
I0
aI1
a(lp545
I3
atp546
aa(lp547
(I9
(lp548
I22
aI23
a(lp549
I25
aI26
atp550
aa(lp551
(I3
(lp552
I6
a(lp553
I18
atp554
a(I3
(lp555
I8
aI9
ag553
tp556
a(I3
(lp557
I11
ag553
tp558
a(I3
(lp559
I14
aI15
ag553
tp560
aa(lp561
(I6
(lp562
I8
aI9
aI10
aI11
a(lp563
I13
atp564
aa(lp565
(I9
(lp566
I17
aI18
aI19
a(lp567
I25
aI26
aI27
aI28
atp568
aa(lp569
(I4
(lp570
I0
a(lp571
I1
atp572
aa(lp573
(I7
(lp574
I0
aI1
a(lp575
I8
aI9
aI10
aI11
atp576
a(I8
g575
(lp577
I14
aI15
aI16
atp578
aa(lp579
(I3
(lp580
I0
aI1
aI2
aI3
a(lp581
I5
atp582
a(I3
g580
(lp583
I7
atp584
a(I3
g581
g583
tp585
aa(lp586
(I7
(lp587
I8
aI9
aI10
a(lp588
I26
atp589
aa(lp590
(I8
(lp591
I2
a(lp592
I34
aI35
atp593
aa(lp594
(I10
(lp595
I15
aI16
aI17
aI18
a(lp596
I28
atp597
a(I10
g595
(lp598
I30
atp599
aa(lp600
(I6
(lp601
I10
aI11
a(lp602
I15
aI16
aI17
atp603
aa(lp604
(I2
(lp605
I0
aI1
a(lp606
I3
aI4
aI5
aI6
atp607
aa(lp608
(I9
(lp609
I0
a(lp610
I2
atp611
aa(lp612
(I2
(lp613
I15
aI16
a(lp614
I25
atp615
a(I2
g613
(lp616
I44
atp617
aa(lp618
(I2
(lp619
I0
aI1
a(lp620
I5
aI6
atp621
aa(lp622
(I4
(lp623
I1
a(lp624
I2
aI3
atp625
aa(lp626
(I2
(lp627
I0
a(lp628
I4
aI5
atp629
a(I2
g627
(lp630
I7
atp631
a(I3
g628
g630
tp632
aa(lp633
(I1
(lp634
I3
a(lp635
I11
aI12
atp636
aa(lp637
(I6
(lp638
I3
a(lp639
I19
atp640
a(I1
g639
(lp641
I21
aI22
atp642
aa(lp643
(I5
(lp644
I11
aI12
a(lp645
I16
atp646
aa(lp647
(I2
(lp648
I0
aI1
aI2
aI3
a(lp649
I6
aI7
atp650
aa(lp651
(I8
(lp652
I0
aI1
a(lp653
I19
aI20
atp654
aa(lp655
(I8
(lp656
I0
a(lp657
I3
aI4
atp658
aa(lp659
(I4
(lp660
I9
aI10
a(lp661
I11
atp662
aa(lp663
(I6
(lp664
I0
a(lp665
I6
aI7
atp666
aa(lp667
(I1
(lp668
I0
a(lp669
I2
aI3
atp670
aa(lp671
(I4
(lp672
I1
a(lp673
I2
aI3
aI4
atp674
aa(lp675
(I6
(lp676
I11
aI12
a(lp677
I17
aI18
aI19
atp678
aa(lp679
(I7
(lp680
I0
aI1
aI2
a(lp681
I8
aI9
aI10
aI11
atp682
a(I6
g680
(lp683
I14
atp684
a(I6
g680
(lp685
I39
atp686
a(I2
g681
g683
tp687
a(I2
g681
g685
tp688
a(I4
g683
(lp689
I22
atp690
a(I2
g689
g685
tp691
aa(lp692
(I7
(lp693
I18
aI19
a(lp694
I24
aI25
aI26
aI27
atp695
aa(lp696
(I6
(lp697
I12
a(lp698
I15
aI16
aI17
aI18
atp699
aa(lp700
(I6
(lp701
I0
aI1
a(lp702
I6
aI7
aI8
atp703
aa(lp704
(I2
(lp705
I2
aI3
a(lp706
I16
atp707
aa(lp708
(I3
(lp709
I3
a(lp710
I5
atp711
a(I4
g709
(lp712
I10
atp713
a(I4
g710
g712
tp714
aa(lp715
(I1
(lp716
I3
aI4
a(lp717
I14
aI15
aI16
aI17
atp718
aa(lp719
(I10
(lp720
I0
a(lp721
I4
aI5
aI6
atp722
aa(lp723
(I7
(lp724
I14
aI15
aI16
a(lp725
I22
aI23
aI24
aI25
aI26
atp726
aa(lp727
(I2
(lp728
I23
aI24
a(lp729
I30
aI31
aI32
atp730
a(I2
g728
(lp731
I34
aI35
atp732
a(I3
g729
g731
tp733
aa(lp734
(I9
(lp735
I3
aI4
aI5
a(lp736
I12
aI13
atp737
aa(lp738
(I10
(lp739
I6
aI7
aI8
a(lp740
I12
aI13
atp741
aa(lp742
(I9
(lp743
I10
a(lp744
I13
aI14
atp745
aa(lp746
(I7
(lp747
I9
aI10
a(lp748
I14
aI15
aI16
aI17
atp749
a(I7
(lp750
I32
aI33
aI34
a(lp751
I41
aI42
aI43
aI44
aI45
aI46
atp752
aa(lp753
(I7
(lp754
I25
aI26
aI27
a(lp755
I35
aI36
atp756
aa(lp757
(I7
(lp758
I24
aI25
a(lp759
I29
aI30
aI31
aI32
aI33
atp760
aa(lp761
(I8
(lp762
I30
a(lp763
I32
aI33
atp764
aa(lp765
(I9
(lp766
I0
a(lp767
I24
atp768
aa(lp769
(I6
(lp770
I4
aI5
a(lp771
I9
aI10
aI11
atp772
aa(lp773
(I5
(lp774
I11
a(lp775
I12
atp776
aa(lp777
(I10
(lp778
I9
aI10
a(lp779
I21
aI22
aI23
atp780
aa(lp781
(I1
(lp782
I12
aI13
a(lp783
I15
aI16
atp784
aa(lp785
(I3
(lp786
I13
aI14
a(lp787
I16
atp788
a(I3
(lp789
I22
a(lp790
I24
atp791
aa(lp792
(I7
(lp793
I14
aI15
a(lp794
I19
atp795
aa(lp796
(I8
(lp797
I1
aI2
a(lp798
I20
aI21
atp799
aa(lp800
(I6
(lp801
I0
aI1
a(lp802
I8
aI9
atp803
aa(lp804
(I10
(lp805
I7
aI8
aI9
a(lp806
I12
aI13
atp807
aa(lp808
(I7
(lp809
I0
aI1
a(lp810
I9
aI10
aI11
atp811
aa(lp812
(I7
(lp813
I29
aI30
a(lp814
I37
aI38
atp815
aa(lp816
(I7
(lp817
I28
aI29
a(lp818
I34
aI35
aI36
aI37
atp819
a(I7
g817
(lp820
I43
aI44
aI45
atp821
aa(lp822
(I3
(lp823
I6
a(lp824
I22
atp825
a(I3
(lp826
I8
ag824
tp827
aa(lp828
(I7
(lp829
I16
aI17
a(lp830
I20
atp831
aa(lp832
(I3
(lp833
I0
aI1
a(lp834
I31
aI32
atp835
aa(lp836
(I6
(lp837
I24
aI25
a(lp838
I31
aI32
aI33
atp839
aa(lp840
(I5
(lp841
I8
a(lp842
I13
aI14
atp843
a(I4
g841
(lp844
I23
aI24
aI25
atp845
a(I4
g842
g844
tp846
a(I2
g844
(lp847
I40
atp848
a(I4
g841
(lp849
I27
aI28
aI29
aI30
aI31
atp850
a(I4
g842
g849
tp851
a(I2
g849
g847
tp852
a(I4
g841
(lp853
I34
atp854
a(I4
g842
g853
tp855
a(I2
g853
g847
tp856
a(I5
g841
g847
tp857
aa(lp858
(I1
(lp859
I2
a(lp860
I4
aI5
atp861
aa(lp862
(I9
(lp863
I0
aI1
a(lp864
I23
aI24
aI25
aI26
aI27
aI28
aI29
atp865
a(I9
(lp866
I7
aI8
aI9
ag864
tp867
aa(lp868
(I3
(lp869
I11
aI12
a(lp870
I14
atp871
aa(lp872
(I8
(lp873
I4
aI5
a(lp874
I7
aI8
aI9
atp875
aa(lp876
(I10
(lp877
I16
aI17
aI18
aI19
aI20
a(lp878
I31
aI32
aI33
atp879
aa(lp880
(I4
(lp881
I0
a(lp882
I1
atp883
aa(lp884
(I9
(lp885
I3
aI4
aI5
a(lp886
I12
aI13
atp887
aa(lp888
(I2
(lp889
I5
aI6
a(lp890
I17
atp891
aa(lp892
(I1
(lp893
I0
a(lp894
I2
aI3
aI4
atp895
a(I1
(lp896
I7
a(lp897
I10
aI11
atp898
aa(lp899
(I8
(lp900
I2
a(lp901
I5
aI6
atp902
aa(lp903
(I2
(lp904
I0
aI1
aI2
a(lp905
I24
atp906
aa(lp907
(I7
(lp908
I6
aI7
a(lp909
I14
aI15
aI16
aI17
atp910
aa(lp911
(I6
(lp912
I0
aI1
a(lp913
I9
aI10
atp914
aa(lp915
(I4
(lp916
I11
a(lp917
I13
aI14
aI15
atp918
a(I1
g916
(lp919
I17
aI18
atp920
a(I8
g917
g919
tp921
aa(lp922
(I6
(lp923
I0
aI1
aI2
a(lp924
I21
aI22
aI23
aI24
atp925
aa(lp926
(I4
(lp927
I0
a(lp928
I1
aI2
atp929
aa(lp930
(I1
(lp931
I6
a(lp932
I15
aI16
atp933
aa(lp934
(I4
(lp935
I0
a(lp936
I1
aI2
aI3
atp937
aa(lp938
(I4
(lp939
I0
a(lp940
I1
atp941
aa(lp942
(I3
(lp943
I1
a(lp944
I4
atp945
a(I4
g943
(lp946
I2
atp947
a(I2
g946
g944
tp948
aa(lp949
(I6
(lp950
I0
aI1
a(lp951
I6
aI7
aI8
atp952
aa(lp953
(I9
(lp954
I4
a(lp955
I10
aI11
atp956
aa(lp957
(I3
(lp958
I0
a(lp959
I2
aI3
atp960
aa(lp961
(I9
(lp962
I8
aI9
aI10
a(lp963
I19
aI20
aI21
atp964
aa(lp965
(I3
(lp966
I0
a(lp967
I2
atp968
a(I4
g966
(lp969
I4
atp970
a(I4
g967
g969
tp971
aa(lp972
(I8
(lp973
I0
a(lp974
I2
aI3
atp975
aa(lp976
(I3
(lp977
I0
aI1
a(lp978
I3
atp979
aa(lp980
(I4
(lp981
I7
a(lp982
I8
aI9
atp983
aa(lp984
(I6
(lp985
I4
aI5
a(lp986
I9
atp987
aa(lp988
(I6
(lp989
I5
aI6
a(lp990
I13
aI14
atp991
a(I6
(lp992
I9
aI10
aI11
ag990
tp993
aa(lp994
(I6
(lp995
I12
aI13
a(lp996
I24
aI25
aI26
atp997
a(I4
g996
(lp998
I33
aI34
aI35
aI36
atp999
aa(lp1000
(I9
(lp1001
I0
aI1
aI2
a(lp1002
I16
atp1003
aa(lp1004
(I7
(lp1005
I1
aI2
aI3
a(lp1006
I10
aI11
aI12
aI13
aI14
aI15
atp1007
aa(lp1008
(I1
(lp1009
I19
aI20
a(lp1010
I23
aI24
atp1011
aa(lp1012
(I6
(lp1013
I4
aI5
aI6
a(lp1014
I10
aI11
aI12
atp1015
aa(lp1016
(I3
(lp1017
I16
aI17
a(lp1018
I19
atp1019
a(I3
(lp1020
I26
a(lp1021
I28
atp1022
a(I3
(lp1023
I31
aI32
a(lp1024
I34
atp1025
aa(lp1026
(I6
(lp1027
I3
aI4
a(lp1028
I29
aI30
aI31
atp1029
aa(lp1030
(I4
(lp1031
I0
a(lp1032
I1
aI2
aI3
aI4
atp1033
aa(lp1034
(I6
(lp1035
I1
aI2
a(lp1036
I4
atp1037
aa(lp1038
(I9
(lp1039
I30
aI31
aI32
a(lp1040
I35
atp1041
aa(lp1042
(I3
(lp1043
I27
a(lp1044
I29
atp1045
a(I3
(lp1046
I32
aI33
aI34
aI35
a(lp1047
I37
atp1048
a(I3
g1046
(lp1049
I39
atp1050
a(I3
g1046
(lp1051
I46
atp1052
a(I3
g1047
g1049
tp1053
a(I5
g1049
(lp1054
I43
aI44
atp1055
aa(lp1056
(I8
(lp1057
I13
aI14
aI15
a(lp1058
I17
aI18
atp1059
aa(lp1060
(I9
(lp1061
I5
a(lp1062
I33
atp1063
aa(lp1064
(I1
(lp1065
I4
aI5
a(lp1066
I9
atp1067
a(I6
g1066
(lp1068
I32
atp1069
aa(lp1070
(I6
(lp1071
I64
aI65
a(lp1072
I71
aI72
aI73
aI74
atp1073
a(I6
(lp1074
I77
aI78
a(lp1075
I84
aI85
atp1076
aa(lp1077
(I9
(lp1078
I12
a(lp1079
I17
atp1080
aa(lp1081
(I7
(lp1082
I9
aI10
aI11
aI12
a(lp1083
I19
aI20
aI21
atp1084
aa(lp1085
(I3
(lp1086
I14
aI15
a(lp1087
I18
atp1088
a(I3
g1086
(lp1089
I20
atp1090
aa(lp1091
(I5
(lp1092
I4
aI5
a(lp1093
I13
aI14
aI15
atp1094
aa(lp1095
(I6
(lp1096
I0
a(lp1097
I6
atp1098
a(I6
g1096
(lp1099
I8
atp1100
a(I3
g1097
g1099
tp1101
a(I3
(lp1102
I15
aI16
aI17
a(lp1103
I19
atp1104
a(I3
g1102
(lp1105
I21
atp1106
a(I3
g1103
g1105
tp1107
aa(lp1108
(I6
(lp1109
I16
aI17
aI18
a(lp1110
I23
aI24
aI25
atp1111
aa(lp1112
(I1
(lp1113
I15
a(lp1114
I16
aI17
atp1115
aa(lp1116
(I3
(lp1117
I13
a(lp1118
I15
atp1119
a(I3
(lp1120
I18
a(lp1121
I20
atp1122
a(I3
(lp1123
I26
a(lp1124
I28
atp1125
aa(lp1126
(I9
(lp1127
I0
a(lp1128
I17
aI18
atp1129
a(I9
g1127
(lp1130
I20
aI21
atp1131
aa(lp1132
(I6
(lp1133
I0
a(lp1134
I26
atp1135
a(I6
g1133
(lp1136
I29
atp1137
a(I3
g1134
g1136
tp1138
aa(lp1139
(I1
(lp1140
I7
a(lp1141
I13
aI14
atp1142
aa(lp1143
(I4
(lp1144
I14
a(lp1145
I15
atp1146
a(I4
g1144
(lp1147
I18
atp1148
aa(lp1149
(I2
(lp1150
I4
aI5
a(lp1151
I7
atp1152
a(I2
g1150
(lp1153
I9
atp1154
a(I3
g1151
g1153
tp1155
aa(lp1156
(I4
(lp1157
I0
aI1
a(lp1158
I2
aI3
atp1159
a(I1
g1157
(lp1160
I5
aI6
atp1161
a(I8
g1158
g1160
tp1162
aa(lp1163
(I6
(lp1164
I0
aI1
aI2
a(lp1165
I14
aI15
aI16
atp1166
a(I3
(lp1167
I35
aI36
aI37
a(lp1168
I39
aI40
aI41
atp1169
aa(lp1170
(I7
(lp1171
I6
aI7
a(lp1172
I10
aI11
aI12
atp1173
aa(lp1174
(I3
(lp1175
I5
a(lp1176
I7
atp1177
aa(lp1178
(I4
(lp1179
I0
a(lp1180
I1
atp1181
aa(lp1182
(I6
(lp1183
I22
a(lp1184
I27
atp1185
aa(lp1186
(I4
(lp1187
I3
a(lp1188
I8
atp1189
a(I4
(lp1190
I18
a(lp1191
I21
aI22
aI23
aI24
aI25
aI26
aI27
atp1192
a(I4
g1190
(lp1193
I29
atp1194
a(I4
g1190
(lp1195
I33
aI34
aI35
aI36
atp1196
a(I4
g1190
(lp1197
I38
atp1198
aa(lp1199
(I6
(lp1200
I17
aI18
aI19
a(lp1201
I32
aI33
aI34
atp1202
aa(lp1203
(I3
(lp1204
I6
a(lp1205
I10
atp1206
a(I3
g1204
(lp1207
I12
aI13
atp1208
a(I5
g1205
g1207
tp1209
aa(lp1210
(I6
(lp1211
I4
aI5
a(lp1212
I9
aI10
aI11
atp1213
aa(lp1214
(I4
(lp1215
I1
a(lp1216
I2
aI3
aI4
atp1217
aa(lp1218
(I10
(lp1219
I2
aI3
a(lp1220
I6
aI7
aI8
atp1221
aa(lp1222
(I8
(lp1223
I1
aI2
a(lp1224
I4
aI5
atp1225
aa(lp1226
(I7
(lp1227
I14
aI15
a(lp1228
I18
aI19
aI20
aI21
atp1229
aa(lp1230
(I2
(lp1231
I4
aI5
a(lp1232
I41
atp1233
aa(lp1234
(I10
(lp1235
I18
aI19
aI20
aI21
a(lp1236
I39
aI40
aI41
atp1237
aa(lp1238
(I2
(lp1239
I4
aI5
aI6
a(lp1240
I17
atp1241
aa(lp1242
(I2
(lp1243
I1
aI2
a(lp1244
I14
atp1245
aa(lp1246
(I3
(lp1247
I5
aI6
a(lp1248
I17
atp1249
a(I4
g1247
(lp1250
I13
atp1251
a(I2
g1250
g1248
tp1252
aa(lp1253
(I3
(lp1254
I0
a(lp1255
I2
atp1256
aa(lp1257
(I1
(lp1258
I10
a(lp1259
I12
aI13
atp1260
aa(lp1261
(I5
(lp1262
I0
a(lp1263
I20
aI21
atp1264
aa(lp1265
(I2
(lp1266
I8
a(lp1267
I10
atp1268
aa(lp1269
(I6
(lp1270
I15
aI16
aI17
a(lp1271
I22
aI23
aI24
atp1272
aa(lp1273
(I7
(lp1274
I0
aI1
a(lp1275
I4
atp1276
aa(lp1277
(I4
(lp1278
I9
a(lp1279
I10
aI11
aI12
atp1280
aa(lp1281
(I9
(lp1282
I23
aI24
aI25
a(lp1283
I34
aI35
atp1284
aa(lp1285
(I9
(lp1286
I6
aI7
aI8
a(lp1287
I24
aI25
atp1288
a(I9
g1286
(lp1289
I27
aI28
atp1290
aa(lp1291
(I6
(lp1292
I0
a(lp1293
I3
aI4
atp1294
aa(lp1295
(I5
(lp1296
I5
a(lp1297
I15
atp1298
a(I5
g1296
(lp1299
I20
aI21
atp1300
aa(lp1301
(I9
(lp1302
I11
aI12
aI13
a(lp1303
I19
atp1304
aa(lp1305
(I6
(lp1306
I11
aI12
aI13
a(lp1307
I18
aI19
aI20
atp1308
aa(lp1309
(I3
(lp1310
I0
a(lp1311
I2
aI3
atp1312
aa(lp1313
(I8
(lp1314
I0
a(lp1315
I3
aI4
atp1316
aa(lp1317
(I1
(lp1318
I0
a(lp1319
I2
aI3
atp1320
aa(lp1321
(I9
(lp1322
I0
aI1
a(lp1323
I11
atp1324
aa(lp1325
(I1
(lp1326
I0
a(lp1327
I3
aI4
atp1328
aa(lp1329
(I3
(lp1330
I19
aI20
a(lp1331
I27
aI28
atp1332
aa(lp1333
(I7
(lp1334
I0
a(lp1335
I7
aI8
aI9
atp1336
a(I7
g1334
(lp1337
I20
atp1338
aa(lp1339
(I6
(lp1340
I5
aI6
a(lp1341
I8
atp1342
a(I3
(lp1343
I17
aI18
a(lp1344
I20
atp1345
aa(lp1346
(I6
(lp1347
I5
aI6
a(lp1348
I10
atp1349
aa(lp1350
(I8
(lp1351
I0
a(lp1352
I2
aI3
aI4
atp1353
aa(lp1354
(I4
(lp1355
I3
a(lp1356
I13
aI14
aI15
aI16
atp1357
a(I2
g1356
(lp1358
I22
atp1359
a(I4
g1358
(lp1360
I33
aI34
aI35
aI36
aI37
atp1361
a(I1
g1358
(lp1362
I38
aI39
atp1363
a(I8
g1360
g1362
tp1364
aa(lp1365
(I9
(lp1366
I3
a(lp1367
I15
aI16
aI17
aI18
atp1368
aa(lp1369
(I8
(lp1370
I0
a(lp1371
I2
aI3
aI4
aI5
atp1372
aa(lp1373
(I7
(lp1374
I0
aI1
a(lp1375
I10
aI11
atp1376
aa(lp1377
(I7
(lp1378
I38
aI39
a(lp1379
I48
aI49
atp1380
aa(lp1381
(I1
(lp1382
I3
aI4
aI5
a(lp1383
I11
aI12
atp1384
aa(lp1385
(I7
(lp1386
I9
aI10
aI11
a(lp1387
I17
aI18
aI19
atp1388
a(I8
(lp1389
I1
aI2
aI3
aI4
aI5
a(lp1390
I21
aI22
aI23
atp1391
a(I7
g1390
(lp1392
I25
atp1393
aa(lp1394
(I4
(lp1395
I15
a(lp1396
I17
aI18
aI19
atp1397
aa(lp1398
(I6
(lp1399
I5
aI6
a(lp1400
I13
aI14
aI15
atp1401
a(I6
(lp1402
I9
ag1400
tp1403
aa(lp1404
(I8
(lp1405
I3
aI4
aI5
aI6
a(lp1406
I9
aI10
atp1407
aa(lp1408
(I8
(lp1409
I31
aI32
a(lp1410
I34
aI35
atp1411
aa(lp1412
(I6
(lp1413
I11
aI12
aI13
a(lp1414
I18
aI19
aI20
atp1415
aa(lp1416
(I8
(lp1417
I2
a(lp1418
I4
aI5
atp1419
aa(lp1420
(I3
(lp1421
I33
a(lp1422
I35
atp1423
a(I3
(lp1424
I45
a(lp1425
I47
aI48
atp1426
aa(lp1427
(I6
(lp1428
I0
aI1
a(lp1429
I3
atp1430
a(I6
g1428
(lp1431
I9
atp1432
a(I4
g1429
(lp1433
I10
atp1434
a(I4
g1431
g1433
tp1435
aa(lp1436
(I7
(lp1437
I45
aI46
a(lp1438
I49
aI50
aI51
atp1439
aa(lp1440
(I6
(lp1441
I6
aI7
a(lp1442
I10
atp1443
aa(lp1444
(I6
(lp1445
I13
aI14
a(lp1446
I24
atp1447
a(I3
(lp1448
I20
aI21
ag1446
tp1449
aa(lp1450
(I4
(lp1451
I1
a(lp1452
I2
aI3
aI4
aI5
atp1453
aa(lp1454
(I9
(lp1455
I0
a(lp1456
I9
atp1457
aa(lp1458
(I2
(lp1459
I0
a(lp1460
I10
aI11
atp1461
a(I4
g1460
(lp1462
I27
atp1463
a(I4
g1460
(lp1464
I29
atp1465
aa(lp1466
(I6
(lp1467
I12
aI13
a(lp1468
I21
aI22
atp1469
aa(lp1470
(I2
(lp1471
I3
a(lp1472
I32
atp1473
a(I8
g1471
(lp1474
I5
aI6
atp1475
a(I6
g1474
(lp1476
I8
atp1477
a(I6
g1474
(lp1478
I10
atp1479
a(I3
g1476
g1478
tp1480
aa(lp1481
(I3
(lp1482
I17
a(lp1483
I19
atp1484
aa(lp1485
(I5
(lp1486
I4
aI5
a(lp1487
I19
aI20
atp1488
aa(lp1489
(I6
(lp1490
I3
a(lp1491
I6
atp1492
aa(lp1493
(I9
(lp1494
I16
aI17
aI18
a(lp1495
I25
aI26
atp1496
a(I9
g1494
(lp1497
I28
aI29
aI30
atp1498
aa(lp1499
(I4
(lp1500
I1
a(lp1501
I2
atp1502
aa(lp1503
(I4
(lp1504
I0
a(lp1505
I1
atp1506
aa(lp1507
(I3
(lp1508
I0
a(lp1509
I2
aI3
atp1510
a(I4
g1508
(lp1511
I5
atp1512
a(I4
g1509
g1511
tp1513
aa(lp1514
(I10
(lp1515
I14
a(lp1516
I24
aI25
atp1517
aa(lp1518
(I7
(lp1519
I31
aI32
a(lp1520
I37
aI38
aI39
atp1521
aa(lp1522
(I7
(lp1523
I14
aI15
a(lp1524
I22
aI23
atp1525
aa(lp1526
(I7
(lp1527
I4
aI5
aI6
a(lp1528
I13
aI14
aI15
aI16
atp1529
aa(lp1530
(I5
(lp1531
I5
a(lp1532
I19
atp1533
aa(lp1534
(I7
(lp1535
I0
a(lp1536
I10
aI11
atp1537
aa(lp1538
(I8
(lp1539
I0
aI1
a(lp1540
I3
atp1541
aa(lp1542
(I9
(lp1543
I0
aI1
a(lp1544
I32
aI33
atp1545
aa(lp1546
(I6
(lp1547
I5
aI6
a(lp1548
I12
atp1549
aa(lp1550
(I7
(lp1551
I0
aI1
a(lp1552
I10
aI11
aI12
aI13
atp1553
aa(lp1554
(I3
(lp1555
I2
aI3
a(lp1556
I16
aI17
atp1557
aa(lp1558
(I7
(lp1559
I0
a(lp1560
I3
aI4
aI5
atp1561
aa(lp1562
(I2
(lp1563
I9
aI10
aI11
a(lp1564
I42
atp1565
a(I2
(lp1566
I14
aI15
ag1564
tp1567
aa(lp1568
(I3
(lp1569
I23
a(lp1570
I30
aI31
atp1571
aa(lp1572
(I6
(lp1573
I21
aI22
a(lp1574
I24
atp1575
aa(lp1576
(I4
(lp1577
I0
aI1
a(lp1578
I2
atp1579
aa(lp1580
(I9
(lp1581
I30
aI31
aI32
a(lp1582
I38
atp1583
aa(lp1584
(I10
(lp1585
I0
a(lp1586
I11
aI12
aI13
atp1587
aa(lp1588
(I10
(lp1589
I4
aI5
aI6
a(lp1590
I9
aI10
atp1591
aa(lp1592
(I5
(lp1593
I17
a(lp1594
I19
aI20
aI21
atp1595
aa(lp1596
(I7
(lp1597
I11
aI12
a(lp1598
I14
aI15
atp1599
a(I2
g1598
(lp1600
I17
atp1601
aa(lp1602
(I1
(lp1603
I14
a(lp1604
I16
aI17
atp1605
a(I6
g1604
(lp1606
I21
atp1607
a(I4
g1603
(lp1608
I25
aI26
atp1609
a(I4
g1606
g1608
tp1610
aa(lp1611
(I9
(lp1612
I4
aI5
aI6
a(lp1613
I9
aI10
atp1614
aa(lp1615
(I1
(lp1616
I14
a(lp1617
I28
atp1618
a(I1
g1616
(lp1619
I58
atp1620
a(I1
g1616
(lp1621
I77
atp1622
aa(lp1623
(I3
(lp1624
I5
a(lp1625
I11
atp1626
a(I3
(lp1627
I7
ag1625
tp1628
a(I3
(lp1629
I9
ag1625
tp1630
a(I3
(lp1631
I13
a(lp1632
I15
atp1633
aa(lp1634
(I8
(lp1635
I0
aI1
aI2
aI3
aI4
aI5
a(lp1636
I11
aI12
aI13
atp1637
aa(lp1638
(I6
(lp1639
I32
aI33
a(lp1640
I36
atp1641
aa(lp1642
(I9
(lp1643
I3
aI4
a(lp1644
I13
aI14
aI15
aI16
aI17
aI18
atp1645
aa(lp1646
(I3
(lp1647
I0
a(lp1648
I2
aI3
atp1649
aa(lp1650
(I4
(lp1651
I1
a(lp1652
I2
atp1653
aa(lp1654
(I9
(lp1655
I5
aI6
aI7
a(lp1656
I10
atp1657
aa(lp1658
(I10
(lp1659
I9
aI10
aI11
a(lp1660
I16
aI17
atp1661
aa(lp1662
(I9
(lp1663
I5
aI6
aI7
a(lp1664
I17
atp1665
aa(lp1666
(I3
(lp1667
I40
a(lp1668
I47
aI48
aI49
aI50
atp1669
a(I3
(lp1670
I42
ag1668
tp1671
a(I3
(lp1672
I44
ag1668
tp1673
aa(lp1674
(I2
(lp1675
I3
aI4
aI5
aI6
aI7
a(lp1676
I9
atp1677
aa(lp1678
(I6
(lp1679
I2
aI3
a(lp1680
I15
atp1681
aa(lp1682
(I8
(lp1683
I0
a(lp1684
I2
aI3
atp1685
aa(lp1686
(I7
(lp1687
I0
aI1
a(lp1688
I12
aI13
aI14
atp1689
a(I3
(lp1690
I17
a(lp1691
I22
aI23
atp1692
aa(lp1693
(I5
(lp1694
I26
a(lp1695
I36
atp1696
aa(lp1697
(I2
(lp1698
I23
aI24
a(lp1699
I29
atp1700
aa(lp1701
(I4
(lp1702
I1
a(lp1703
I2
atp1704
aa(lp1705
(I6
(lp1706
I25
aI26
a(lp1707
I39
atp1708
a(I6
g1706
(lp1709
I42
atp1710
a(I6
g1706
(lp1711
I45
aI46
aI47
aI48
atp1712
aa(lp1713
(I6
(lp1714
I0
aI1
a(lp1715
I10
atp1716
aa(lp1717
(I4
(lp1718
I0
a(lp1719
I1
aI2
aI3
atp1720
aa(lp1721
(I7
(lp1722
I28
aI29
a(lp1723
I33
aI34
aI35
atp1724
aa(lp1725
(I4
(lp1726
I1
a(lp1727
I2
aI3
atp1728
aa(lp1729
(I4
(lp1730
I1
a(lp1731
I2
atp1732
aa(lp1733
(I4
(lp1734
I3
a(lp1735
I8
atp1736
aa(lp1737
(I9
(lp1738
I0
a(lp1739
I5
atp1740
aa(lp1741
(I9
(lp1742
I18
aI19
aI20
a(lp1743
I27
aI28
aI29
aI30
aI31
atp1744
aa(lp1745
(I6
(lp1746
I25
aI26
a(lp1747
I29
atp1748
aa(lp1749
(I10
(lp1750
I6
aI7
aI8
aI9
a(lp1751
I20
atp1752
aa(lp1753
(I6
(lp1754
I17
aI18
a(lp1755
I20
aI21
atp1756
aa(lp1757
(I6
(lp1758
I7
aI8
a(lp1759
I18
atp1760
aa(lp1761
(I3
(lp1762
I19
a(lp1763
I28
atp1764
aa(lp1765
(I4
(lp1766
I0
aI1
a(lp1767
I3
atp1768
aa(lp1769
(I6
(lp1770
I3
aI4
a(lp1771
I6
aI7
atp1772
aa(lp1773
(I6
(lp1774
I4
aI5
a(lp1775
I21
aI22
aI23
atp1776
aa(lp1777
(I6
(lp1778
I6
aI7
a(lp1779
I9
aI10
atp1780
aa(lp1781
(I7
(lp1782
I1
aI2
a(lp1783
I30
atp1784
a(I7
(lp1785
I15
aI16
ag1783
tp1786
aa(lp1787
(I3
(lp1788
I0
a(lp1789
I2
atp1790
a(I4
g1788
(lp1791
I4
atp1792
a(I4
g1789
g1791
tp1793
aa(lp1794
(I10
(lp1795
I10
aI11
aI12
aI13
a(lp1796
I21
aI22
aI23
atp1797
aa(lp1798
(I7
(lp1799
I29
aI30
aI31
a(lp1800
I38
atp1801
aa(lp1802
(I9
(lp1803
I0
aI1
aI2
a(lp1804
I6
aI7
atp1805
aa(lp1806
(I8
(lp1807
I0
a(lp1808
I2
aI3
atp1809
aa(lp1810
(I3
(lp1811
I16
a(lp1812
I18
atp1813
a(I1
g1811
(lp1814
I21
aI22
aI23
atp1815
a(I1
g1812
g1814
tp1816
aa(lp1817
(I7
(lp1818
I13
a(lp1819
I16
aI17
atp1820
aa(lp1821
(I3
(lp1822
I16
aI17
aI18
a(lp1823
I27
atp1824
a(I3
g1822
(lp1825
I29
aI30
aI31
aI32
atp1826
aa(lp1827
(I9
(lp1828
I11
a(lp1829
I17
atp1830
aa(lp1831
(I6
(lp1832
I0
aI1
a(lp1833
I6
aI7
atp1834
aa(lp1835
(I2
(lp1836
I0
aI1
aI2
a(lp1837
I4
atp1838
aa(lp1839
(I7
(lp1840
I66
aI67
a(lp1841
I73
aI74
aI75
atp1842
a(I7
(lp1843
I69
aI70
ag1841
tp1844
aa(lp1845
(I4
(lp1846
I0
aI1
a(lp1847
I3
atp1848
aa(lp1849
(I3
(lp1850
I3
aI4
aI5
aI6
aI7
a(lp1851
I9
aI10
atp1852
aa(lp1853
(I6
(lp1854
I16
aI17
a(lp1855
I20
atp1856
a(I3
(lp1857
I27
aI28
a(lp1858
I32
atp1859
aa(lp1860
(I4
(lp1861
I1
a(lp1862
I2
aI3
aI4
aI5
atp1863
aa(lp1864
(I4
(lp1865
I19
a(lp1866
I22
atp1867
a(I4
g1865
(lp1868
I24
aI25
aI26
atp1869
a(I1
g1865
(lp1870
I29
aI30
aI31
atp1871
a(I8
g1866
g1870
tp1872
a(I8
g1868
g1870
tp1873
aa(lp1874
(I3
(lp1875
I11
a(lp1876
I16
atp1877
a(I3
g1875
(lp1878
I21
atp1879
a(I3
(lp1880
I13
ag1876
tp1881
a(I3
g1880
g1878
tp1882
a(I5
g1876
(lp1883
I18
atp1884
a(I3
g1883
g1878
tp1885
aa(lp1886
(I3
(lp1887
I12
aI13
a(lp1888
I15
atp1889
a(I8
(lp1890
I5
a(lp1891
I18
atp1892
aa(lp1893
(I4
(lp1894
I9
a(lp1895
I10
aI11
atp1896
aa(lp1897
(I6
(lp1898
I15
aI16
a(lp1899
I21
aI22
aI23
aI24
atp1900
aa(lp1901
(I9
(lp1902
I10
aI11
aI12
a(lp1903
I20
aI21
atp1904
aa(lp1905
(I8
(lp1906
I0
a(lp1907
I2
aI3
atp1908
aa(lp1909
(I4
(lp1910
I0
a(lp1911
I1
aI2
atp1912
aa(lp1913
(I3
(lp1914
I0
aI1
a(lp1915
I3
atp1916
a(I4
g1914
(lp1917
I5
atp1918
a(I4
g1915
g1917
tp1919
aa(lp1920
(I9
(lp1921
I30
aI31
aI32
a(lp1922
I38
aI39
aI40
aI41
atp1923
aa(lp1924
(I4
(lp1925
I15
a(lp1926
I17
aI18
atp1927
aa(lp1928
(I9
(lp1929
I3
aI4
aI5
a(lp1930
I20
aI21
aI22
aI23
atp1931
aa(lp1932
(I1
(lp1933
I3
a(lp1934
I5
aI6
aI7
atp1935
aa(lp1936
(I6
(lp1937
I4
a(lp1938
I29
atp1939
a(I2
(lp1940
I9
aI10
a(lp1941
I33
atp1942
aa(lp1943
(I4
(lp1944
I1
a(lp1945
I2
atp1946
aa(lp1947
(I7
(lp1948
I0
aI1
a(lp1949
I7
aI8
aI9
aI10
atp1950
aa(lp1951
(I6
(lp1952
I4
aI5
a(lp1953
I9
aI10
aI11
atp1954
aa(lp1955
(I3
(lp1956
I28
a(lp1957
I30
atp1958
aa(lp1959
(I6
(lp1960
I15
aI16
a(lp1961
I21
aI22
aI23
aI24
atp1962
aa(lp1963
(I6
(lp1964
I14
aI15
a(lp1965
I19
aI20
aI21
atp1966
aa(lp1967
(I6
(lp1968
I14
aI15
a(lp1969
I17
atp1970
aa(lp1971
(I2
(lp1972
I0
aI1
aI2
aI3
a(lp1973
I8
atp1974
a(I1
g1973
(lp1975
I21
aI22
atp1976
a(I1
(lp1977
I19
ag1975
tp1978
a(I6
g1975
(lp1979
I43
atp1980
aa(lp1981
(I6
(lp1982
I4
aI5
a(lp1983
I9
aI10
atp1984
aa(lp1985
(I4
(lp1986
I3
a(lp1987
I11
aI12
aI13
aI14
aI15
atp1988
aa(lp1989
(I4
(lp1990
I0
a(lp1991
I1
atp1992
aa(lp1993
(I10
(lp1994
I12
aI13
aI14
a(lp1995
I19
aI20
atp1996
aa(lp1997
(I2
(lp1998
I30
aI31
aI32
a(lp1999
I34
atp2000
a(I2
g1998
(lp2001
I36
atp2002
a(I3
g1999
g2001
tp2003
aa(lp2004
(I6
(lp2005
I0
a(lp2006
I5
atp2007
aa(lp2008
(I4
(lp2009
I1
a(lp2010
I2
aI3
atp2011
aa(lp2012
(I6
(lp2013
I0
a(lp2014
I5
aI6
aI7
aI8
atp2015
aa(lp2016
(I8
(lp2017
I0
aI1
a(lp2018
I3
aI4
aI5
atp2019
aa(lp2020
(I4
(lp2021
I8
a(lp2022
I13
aI14
aI15
atp2023
aa(lp2024
(I1
(lp2025
I19
aI20
a(lp2026
I24
aI25
atp2027
aa(lp2028
(I10
(lp2029
I18
aI19
a(lp2030
I28
atp2031
aa(lp2032
(I9
(lp2033
I0
a(lp2034
I10
atp2035
aa(lp2036
(I9
(lp2037
I0
a(lp2038
I15
aI16
atp2039
a(I9
g2037
(lp2040
I25
aI26
atp2041
a(I9
(lp2042
I6
aI7
ag2038
tp2043
a(I9
g2042
g2040
tp2044
aa(lp2045
(I7
(lp2046
I22
aI23
aI24
a(lp2047
I32
aI33
atp2048
aa(lp2049
(I8
(lp2050
I21
aI22
a(lp2051
I24
aI25
aI26
aI27
atp2052
aa(lp2053
(I5
(lp2054
I1
a(lp2055
I8
atp2056
aa(lp2057
(I2
(lp2058
I0
aI1
a(lp2059
I5
aI6
atp2060
aa(lp2061
(I9
(lp2062
I37
aI38
aI39
a(lp2063
I44
aI45
aI46
aI47
atp2064
aa(lp2065
(I7
(lp2066
I38
aI39
a(lp2067
I46
aI47
aI48
atp2068
aa(lp2069
(I4
(lp2070
I13
a(lp2071
I14
aI15
atp2072
aa(lp2073
(I1
(lp2074
I0
a(lp2075
I2
aI3
atp2076
aa(lp2077
(I1
(lp2078
I14
a(lp2079
I17
aI18
aI19
atp2080
aa(lp2081
(I10
(lp2082
I12
a(lp2083
I25
aI26
aI27
atp2084
aa(lp2085
(I6
(lp2086
I1
aI2
aI3
a(lp2087
I5
atp2088
aa(lp2089
(I6
(lp2090
I4
aI5
a(lp2091
I9
aI10
aI11
aI12
atp2092
aa(lp2093
(I9
(lp2094
I17
aI18
a(lp2095
I21
atp2096
aa(lp2097
(I2
(lp2098
I1
aI2
aI3
aI4
a(lp2099
I14
aI15
atp2100
a(I2
(lp2101
I6
ag2099
tp2102
a(I2
(lp2103
I10
aI11
aI12
ag2099
tp2104
aa(lp2105
(I1
(lp2106
I16
a(lp2107
I23
aI24
atp2108
aa(lp2109
(I9
(lp2110
I5
aI6
aI7
aI8
a(lp2111
I18
atp2112
aa(lp2113
(I4
(lp2114
I9
a(lp2115
I10
aI11
aI12
atp2116
aa(lp2117
(I3
(lp2118
I9
a(lp2119
I11
atp2120
aa(lp2121
(I8
(lp2122
I0
a(lp2123
I2
aI3
atp2124
aa(lp2125
(I1
(lp2126
I10
a(lp2127
I12
aI13
aI14
atp2128
a(I6
g2127
(lp2129
I21
atp2130
aa(lp2131
(I4
(lp2132
I1
a(lp2133
I2
atp2134
aa(lp2135
(I3
(lp2136
I5
a(lp2137
I7
atp2138
a(I3
(lp2139
I10
a(lp2140
I14
atp2141
a(I3
(lp2142
I12
ag2140
tp2143
aa(lp2144
(I9
(lp2145
I42
a(lp2146
I49
aI50
atp2147
a(I9
g2145
(lp2148
I52
aI53
atp2149
aa(lp2150
(I8
(lp2151
I12
aI13
aI14
aI15
a(lp2152
I16
aI17
atp2153
a(I8
g2151
(lp2154
I32
atp2155
aa(lp2156
(I6
(lp2157
I0
aI1
aI2
a(lp2158
I4
atp2159
a(I6
g2157
(lp2160
I6
atp2161
a(I3
g2158
g2160
tp2162
aa(lp2163
(I4
(lp2164
I1
a(lp2165
I2
aI3
atp2166
aa(lp2167
(I2
(lp2168
I4
aI5
a(lp2169
I7
atp2170
aa(lp2171
(I3
(lp2172
I7
a(lp2173
I10
atp2174
a(I7
(lp2175
I13
aI14
a(lp2176
I21
aI22
aI23
aI24
aI25
aI26
atp2177
a(I4
g2173
g2176
tp2178
a(I4
(lp2179
I19
ag2176
tp2180
aa(lp2181
(I9
(lp2182
I8
aI9
a(lp2183
I13
aI14
aI15
atp2184
aa(lp2185
(I3
(lp2186
I7
aI8
aI9
a(lp2187
I14
atp2188
aa(lp2189
(I9
(lp2190
I4
aI5
a(lp2191
I20
aI21
atp2192
aa(lp2193
(I9
(lp2194
I27
aI28
a(lp2195
I38
aI39
aI40
atp2196
a(I9
g2195
(lp2197
I47
aI48
aI49
aI50
atp2198
aa(lp2199
(I6
(lp2200
I0
aI1
a(lp2201
I17
aI18
aI19
aI20
atp2202
a(I6
(lp2203
I6
aI7
aI8
aI9
ag2201
tp2204
a(I6
(lp2205
I13
aI14
aI15
ag2201
tp2206
aa(lp2207
(I6
(lp2208
I0
aI1
aI2
a(lp2209
I24
atp2210
a(I6
g2208
(lp2211
I26
atp2212
a(I3
g2209
g2211
tp2213
a(I1
g2211
(lp2214
I27
aI28
atp2215
a(I6
g2214
(lp2216
I47
atp2217
a(I6
g2214
(lp2218
I49
atp2219
a(I3
g2216
g2218
tp2220
aa(lp2221
(I7
(lp2222
I1
aI2
aI3
a(lp2223
I8
atp2224
aa(lp2225
(I4
(lp2226
I0
a(lp2227
I1
aI2
atp2228
aa(lp2229
(I4
(lp2230
I0
a(lp2231
I1
aI2
aI3
atp2232
aa(lp2233
(I6
(lp2234
I5
aI6
aI7
a(lp2235
I16
aI17
atp2236
aa(lp2237
(I1
(lp2238
I25
aI26
a(lp2239
I30
aI31
atp2240
aa(lp2241
(I2
(lp2242
I21
aI22
a(lp2243
I24
atp2244
a(I2
g2242
(lp2245
I26
atp2246
a(I2
g2242
(lp2247
I28
atp2248
a(I2
g2242
(lp2249
I30
atp2250
a(I2
g2242
(lp2251
I33
atp2252
aa(lp2253
(I4
(lp2254
I0
aI1
a(lp2255
I3
atp2256
aa(lp2257
(I10
(lp2258
I8
aI9
a(lp2259
I21
atp2260
aa(lp2261
(I7
(lp2262
I0
aI1
a(lp2263
I10
aI11
atp2264
aa(lp2265
(I1
(lp2266
I18
a(lp2267
I19
aI20
atp2268
aa(lp2269
(I3
(lp2270
I0
a(lp2271
I2
atp2272
aa(lp2273
(I1
(lp2274
I1
a(lp2275
I3
aI4
atp2276
aa(lp2277
(I1
(lp2278
I7
a(lp2279
I9
aI10
aI11
atp2280
aa(lp2281
(I4
(lp2282
I21
a(lp2283
I22
atp2284
aa(lp2285
(I9
(lp2286
I0
aI1
aI2
a(lp2287
I11
aI12
atp2288
aa(lp2289
(I6
(lp2290
I4
aI5
a(lp2291
I22
aI23
aI24
atp2292
aa(lp2293
(I6
(lp2294
I1
a(lp2295
I6
atp2296
a(I6
g2294
(lp2297
I8
aI9
atp2298
a(I3
g2295
g2297
tp2299
aa(lp2300
(I4
(lp2301
I1
a(lp2302
I2
aI3
aI4
atp2303
aa(lp2304
(I3
(lp2305
I0
aI1
aI2
aI3
a(lp2306
I5
aI6
atp2307
a(I3
g2305
(lp2308
I8
atp2309
a(I3
g2306
g2308
tp2310
aa(lp2311
(I9
(lp2312
I0
a(lp2313
I12
atp2314
aa(lp2315
(I7
(lp2316
I1
a(lp2317
I9
aI10
atp2318
a(I6
(lp2319
I5
a(lp2320
I18
atp2321
a(I6
g2319
(lp2322
I27
atp2323
aa(lp2324
(I6
(lp2325
I0
a(lp2326
I4
atp2327
a(I6
g2325
(lp2328
I7
atp2329
aa(lp2330
(I9
(lp2331
I0
a(lp2332
I4
atp2333
aa(lp2334
(I7
(lp2335
I31
aI32
a(lp2336
I36
atp2337
aa(lp2338
(I8
(lp2339
I4
aI5
a(lp2340
I31
aI32
atp2341
aa(lp2342
(I6
(lp2343
I11
aI12
a(lp2344
I14
aI15
atp2345
aa(lp2346
(I6
(lp2347
I0
a(lp2348
I7
aI8
atp2349
a(I7
g2347
(lp2350
I11
aI12
aI13
atp2351
a(I4
g2348
g2350
tp2352
aa(lp2353
(I7
(lp2354
I0
aI1
a(lp2355
I7
aI8
aI9
aI10
atp2356
aa(lp2357
(I6
(lp2358
I7
a(lp2359
I24
atp2360
aa(lp2361
(I4
(lp2362
I0
a(lp2363
I1
aI2
atp2364
aa(lp2365
(I8
(lp2366
I11
aI12
aI13
aI14
aI15
a(lp2367
I21
aI22
atp2368
a(I8
(lp2369
I18
aI19
aI20
ag2367
tp2370
aa(lp2371
(I3
(lp2372
I17
a(lp2373
I19
atp2374
aa(lp2375
(I5
(lp2376
I0
a(lp2377
I5
atp2378
aa(lp2379
(I6
(lp2380
I15
a(lp2381
I20
aI21
atp2382
aa(lp2383
(I6
(lp2384
I21
a(lp2385
I25
aI26
atp2386
aa(lp2387
(I7
(lp2388
I3
aI4
a(lp2389
I9
atp2390
aa(lp2391
(I8
(lp2392
I0
aI1
a(lp2393
I3
aI4
atp2394
aa(lp2395
(I3
(lp2396
I27
a(lp2397
I34
atp2398
aa(lp2399
(I6
(lp2400
I0
a(lp2401
I15
atp2402
a(I6
(lp2403
I9
ag2401
tp2404
aa(lp2405
(I6
(lp2406
I7
aI8
a(lp2407
I21
aI22
aI23
aI24
atp2408
aa(lp2409
(I1
(lp2410
I4
aI5
a(lp2411
I8
aI9
atp2412
aa(lp2413
(I7
(lp2414
I8
a(lp2415
I15
aI16
aI17
aI18
atp2416
aa(lp2417
(I3
(lp2418
I18
a(lp2419
I21
atp2420
aa(lp2421
(I2
(lp2422
I9
aI10
a(lp2423
I12
atp2424
a(I2
(lp2425
I15
aI16
a(lp2426
I18
atp2427
aa(lp2428
(I1
(lp2429
I20
a(lp2430
I22
aI23
aI24
atp2431
aa(lp2432
(I6
(lp2433
I0
aI1
a(lp2434
I5
aI6
atp2435
aa(lp2436
(I9
(lp2437
I0
aI1
a(lp2438
I9
aI10
aI11
aI12
atp2439
aa(lp2440
(I5
(lp2441
I6
aI7
a(lp2442
I13
atp2443
a(I5
g2441
(lp2444
I23
aI24
atp2445
a(I5
g2442
g2444
tp2446
aa(lp2447
(I6
(lp2448
I0
aI1
a(lp2449
I29
aI30
atp2450
aa(lp2451
(I6
(lp2452
I11
aI12
a(lp2453
I17
aI18
aI19
atp2454
aa(lp2455
(I7
(lp2456
I2
aI3
a(lp2457
I5
atp2458
aa(lp2459
(I7
(lp2460
I0
aI1
a(lp2461
I13
aI14
aI15
aI16
atp2462
aa(lp2463
(I3
(lp2464
I0
a(lp2465
I2
aI3
atp2466
a(I4
g2464
(lp2467
I5
atp2468
a(I4
g2465
g2467
tp2469
aa(lp2470
(I1
(lp2471
I0
aI1
a(lp2472
I3
aI4
atp2473
aa(lp2474
(I9
(lp2475
I15
aI16
a(lp2476
I18
aI19
atp2477
aa(lp2478
(I6
(lp2479
I4
aI5
a(lp2480
I17
aI18
atp2481
aa(lp2482
(I7
(lp2483
I0
a(lp2484
I27
atp2485
a(I7
(lp2486
I20
aI21
ag2484
tp2487
aa(lp2488
(I6
(lp2489
I4
a(lp2490
I6
aI7
atp2491
aa(lp2492
(I2
(lp2493
I7
aI8
aI9
aI10
aI11
a(lp2494
I13
atp2495
a(I2
(lp2496
I17
aI18
a(lp2497
I20
atp2498
a(I2
g2496
(lp2499
I22
atp2500
a(I2
(lp2501
I28
aI29
aI30
a(lp2502
I32
atp2503
a(I2
(lp2504
I39
aI40
aI41
aI42
a(lp2505
I44
atp2506
aa(lp2507
(I8
(lp2508
I28
aI29
aI30
a(lp2509
I32
aI33
atp2510
aa(lp2511
(I3
(lp2512
I0
a(lp2513
I2
atp2514
aa(lp2515
(I1
(lp2516
I3
a(lp2517
I29
aI30
atp2518
aa(lp2519
(I8
(lp2520
I8
a(lp2521
I10
aI11
aI12
atp2522
aa(lp2523
(I9
(lp2524
I3
a(lp2525
I14
atp2526
aa(lp2527
(I3
(lp2528
I0
a(lp2529
I2
atp2530
a(I4
g2528
(lp2531
I4
atp2532
a(I4
g2529
g2531
tp2533
aa(lp2534
(I3
(lp2535
I6
a(lp2536
I8
atp2537
a(I4
g2536
(lp2538
I11
aI12
atp2539
a(I2
g2538
(lp2540
I14
atp2541
a(I5
g2536
g2540
tp2542
aa(lp2543
(I1
(lp2544
I7
aI8
a(lp2545
I17
atp2546
aa(lp2547
(I8
(lp2548
I22
a(lp2549
I24
aI25
atp2550
aa(lp2551
(I2
(lp2552
I0
aI1
aI2
aI3
aI4
a(lp2553
I6
atp2554
a(I2
g2552
(lp2555
I8
atp2556
a(I3
g2553
g2555
tp2557
aa(lp2558
(I3
(lp2559
I7
aI8
a(lp2560
I26
aI27
atp2561
aa(lp2562
(I9
(lp2563
I0
aI1
aI2
a(lp2564
I6
aI7
aI8
aI9
atp2565
aa(lp2566
(I2
(lp2567
I14
aI15
aI16
a(lp2568
I18
atp2569
a(I2
(lp2570
I28
aI29
aI30
a(lp2571
I32
atp2572
aa(lp2573
(I7
(lp2574
I18
aI19
aI20
a(lp2575
I22
atp2576
aa(lp2577
(I2
(lp2578
I0
aI1
a(lp2579
I3
atp2580
aa(lp2581
(I9
(lp2582
I58
aI59
a(lp2583
I63
aI64
atp2584
aa(lp2585
(I7
(lp2586
I0
a(lp2587
I3
aI4
atp2588
a(I7
g2586
(lp2589
I7
aI8
aI9
atp2590
aa(lp2591
(I10
(lp2592
I6
aI7
aI8
a(lp2593
I15
aI16
atp2594
aa(lp2595
(I9
(lp2596
I0
aI1
aI2
a(lp2597
I6
aI7
atp2598
aa(lp2599
(I7
(lp2600
I17
aI18
a(lp2601
I24
aI25
atp2602
aa(lp2603
(I9
(lp2604
I4
aI5
aI6
a(lp2605
I13
aI14
aI15
aI16
atp2606
aa(lp2607
(I7
(lp2608
I0
aI1
a(lp2609
I6
aI7
aI8
aI9
aI10
aI11
aI12
aI13
aI14
atp2610
aa(lp2611
(I4
(lp2612
I0
aI1
a(lp2613
I2
aI3
atp2614
aa(lp2615
(I2
(lp2616
I11
aI12
aI13
aI14
a(lp2617
I16
aI17
atp2618
aa(lp2619
(I10
(lp2620
I1
aI2
a(lp2621
I5
aI6
atp2622
aa(lp2623
(I6
(lp2624
I4
aI5
a(lp2625
I9
aI10
aI11
atp2626
aa(lp2627
(I9
(lp2628
I0
aI1
aI2
a(lp2629
I11
atp2630
aa(lp2631
(I3
(lp2632
I0
a(lp2633
I2
atp2634
a(I4
g2632
(lp2635
I4
atp2636
a(I4
g2633
g2635
tp2637
aa(lp2638
(I4
(lp2639
I0
a(lp2640
I1
aI2
aI3
atp2641
aa(lp2642
(I1
(lp2643
I30
a(lp2644
I37
aI38
atp2645
aa(lp2646
(I4
(lp2647
I5
a(lp2648
I6
aI7
atp2649
aa(lp2650
(I6
(lp2651
I9
aI10
a(lp2652
I24
atp2653
a(I6
(lp2654
I17
ag2652
tp2655
aa(lp2656
(I4
(lp2657
I0
a(lp2658
I1
aI2
atp2659
aa(lp2660
(I7
(lp2661
I0
aI1
a(lp2662
I7
aI8
atp2663
aa(lp2664
(I6
(lp2665
I9
aI10
aI11
a(lp2666
I29
aI30
atp2667
a(I6
(lp2668
I41
aI42
a(lp2669
I50
aI51
atp2670
aa(lp2671
(I6
(lp2672
I0
aI1
a(lp2673
I4
atp2674
aa(lp2675
(I7
(lp2676
I0
a(lp2677
I12
aI13
atp2678
aa(lp2679
(I2
(lp2680
I36
a(lp2681
I39
atp2682
aa(lp2683
(I9
(lp2684
I5
aI6
aI7
a(lp2685
I13
atp2686
aa(lp2687
(I1
(lp2688
I6
aI7
a(lp2689
I9
aI10
atp2690
aa(lp2691
(I6
(lp2692
I18
aI19
a(lp2693
I32
atp2694
aa(lp2695
(I4
(lp2696
I0
a(lp2697
I1
aI2
atp2698
aa(lp2699
(I1
(lp2700
I0
a(lp2701
I2
aI3
aI4
atp2702
aa(lp2703
(I3
(lp2704
I0
aI1
a(lp2705
I7
atp2706
aa(lp2707
(I1
(lp2708
I0
a(lp2709
I2
aI3
aI4
atp2710
aa(lp2711
(I8
(lp2712
I1
a(lp2713
I5
aI6
aI7
atp2714
aa(lp2715
(I5
(lp2716
I5
a(lp2717
I12
atp2718
aa(lp2719
(I9
(lp2720
I15
aI16
a(lp2721
I21
aI22
aI23
atp2722
a(I9
g2721
(lp2723
I29
aI30
atp2724
aa(lp2725
(I3
(lp2726
I23
a(lp2727
I55
atp2728
aa(lp2729
(I1
(lp2730
I2
a(lp2731
I4
aI5
atp2732
aa(lp2733
(I7
(lp2734
I0
aI1
a(lp2735
I5
aI6
aI7
atp2736
aa(lp2737
(I7
(lp2738
I9
aI10
a(lp2739
I45
aI46
aI47
aI48
atp2740
a(I2
g2739
(lp2741
I50
atp2742
aa(lp2743
(I6
(lp2744
I13
aI14
a(lp2745
I22
atp2746
aa(lp2747
(I4
(lp2748
I0
a(lp2749
I1
atp2750
aa(lp2751
(I10
(lp2752
I4
a(lp2753
I16
aI17
aI18
atp2754
aa(lp2755
(I4
(lp2756
I8
a(lp2757
I11
aI12
atp2758
a(I2
g2757
(lp2759
I14
atp2760
aa(lp2761
(I3
(lp2762
I27
aI28
a(lp2763
I30
atp2764
aa(lp2765
(I4
(lp2766
I0
a(lp2767
I1
aI2
atp2768
aa(lp2769
(I3
(lp2770
I0
a(lp2771
I2
atp2772
aa(lp2773
(I6
(lp2774
I11
aI12
aI13
a(lp2775
I18
aI19
atp2776
aa(lp2777
(I3
(lp2778
I6
aI7
a(lp2779
I9
atp2780
aa(lp2781
(I7
(lp2782
I0
aI1
a(lp2783
I12
atp2784
aa(lp2785
(I6
(lp2786
I16
aI17
aI18
a(lp2787
I29
atp2788
aa(lp2789
(I3
(lp2790
I1
aI2
a(lp2791
I34
aI35
atp2792
aa(lp2793
(I7
(lp2794
I0
a(lp2795
I4
aI5
atp2796
aa(lp2797
(I9
(lp2798
I3
aI4
a(lp2799
I9
aI10
aI11
aI12
atp2800
aa(lp2801
(I6
(lp2802
I5
aI6
a(lp2803
I13
atp2804
a(I6
g2802
(lp2805
I15
atp2806
a(I3
g2803
g2805
tp2807
aa(lp2808
(I3
(lp2809
I4
a(lp2810
I11
atp2811
aa(lp2812
(I6
(lp2813
I0
a(lp2814
I4
aI5
aI6
atp2815
a(I1
g2814
(lp2816
I10
aI11
aI12
aI13
atp2817
aa(lp2818
(I7
(lp2819
I1
aI2
a(lp2820
I9
aI10
aI11
aI12
aI13
aI14
atp2821
aa(lp2822
(I5
(lp2823
I3
a(lp2824
I8
aI9
atp2825
aa(lp2826
(I7
(lp2827
I46
aI47
a(lp2828
I55
aI56
aI57
atp2829
aa(lp2830
(I6
(lp2831
I1
aI2
a(lp2832
I14
atp2833
aa(lp2834
(I3
(lp2835
I0
a(lp2836
I2
atp2837
a(I4
g2835
(lp2838
I4
atp2839
a(I4
g2836
g2838
tp2840
a(I1
g2835
(lp2841
I7
aI8
atp2842
a(I1
g2836
g2841
tp2843
a(I8
g2838
g2841
tp2844
aa(lp2845
(I4
(lp2846
I19
a(lp2847
I20
atp2848
aa(lp2849
(I3
(lp2850
I38
a(lp2851
I40
atp2852
aa(lp2853
(I10
(lp2854
I15
a(lp2855
I23
aI24
aI25
atp2856
aa(lp2857
(I2
(lp2858
I3
aI4
aI5
aI6
aI7
aI8
aI9
a(lp2859
I46
aI47
atp2860
a(I2
(lp2861
I11
ag2859
tp2862
a(I6
(lp2863
I39
aI40
aI41
ag2859
tp2864
aa(lp2865
(I6
(lp2866
I12
aI13
a(lp2867
I20
aI21
atp2868
aa(lp2869
(I3
(lp2870
I0
aI1
aI2
aI3
a(lp2871
I5
atp2872
a(I3
g2870
(lp2873
I7
atp2874
a(I3
g2871
g2873
tp2875
aa(lp2876
(I2
(lp2877
I4
aI5
a(lp2878
I7
atp2879
aa(lp2880
(I8
(lp2881
I20
aI21
a(lp2882
I23
aI24
atp2883
aa(lp2884
(I2
(lp2885
I18
aI19
aI20
a(lp2886
I23
atp2887
aa(lp2888
(I3
(lp2889
I10
aI11
a(lp2890
I14
atp2891
aa(lp2892
(I8
(lp2893
I21
a(lp2894
I23
aI24
aI25
aI26
atp2895
aa(lp2896
(I10
(lp2897
I23
a(lp2898
I27
aI28
aI29
atp2899
aa(lp2900
(I7
(lp2901
I0
aI1
a(lp2902
I10
aI11
atp2903
aa(lp2904
(I10
(lp2905
I7
aI8
a(lp2906
I18
aI19
aI20
atp2907
aa(lp2908
(I4
(lp2909
I0
aI1
a(lp2910
I3
atp2911
aa(lp2912
(I6
(lp2913
I7
aI8
a(lp2914
I12
atp2915
aa(lp2916
(I8
(lp2917
I0
a(lp2918
I3
aI4
atp2919
aa(lp2920
(I7
(lp2921
I0
a(lp2922
I4
aI5
atp2923
a(I7
(lp2924
I56
a(lp2925
I61
aI62
atp2926
aa(lp2927
(I9
(lp2928
I0
a(lp2929
I12
atp2930
aa(lp2931
(I10
(lp2932
I0
aI1
aI2
aI3
a(lp2933
I20
aI21
aI22
atp2934
aa(lp2935
(I4
(lp2936
I3
a(lp2937
I6
atp2938
aa(lp2939
(I8
(lp2940
I2
aI3
a(lp2941
I5
aI6
atp2942
a(I8
(lp2943
I16
aI17
a(lp2944
I22
aI23
atp2945
aa(lp2946
(I3
(lp2947
I4
a(lp2948
I6
aI7
atp2949
aa(lp2950
(I6
(lp2951
I5
aI6
a(lp2952
I10
aI11
aI12
aI13
atp2953
aa(lp2954
(I9
(lp2955
I0
a(lp2956
I12
atp2957
aa(lp2958
(I9
(lp2959
I0
aI1
aI2
a(lp2960
I24
atp2961
aa(lp2962
(I5
(lp2963
I26
a(lp2964
I27
atp2965
aa(lp2966
(I6
(lp2967
I4
aI5
a(lp2968
I16
aI17
atp2969
aa(lp2970
(I8
(lp2971
I11
a(lp2972
I13
aI14
aI15
aI16
atp2973
aa(lp2974
(I8
(lp2975
I0
a(lp2976
I8
aI9
atp2977
a(I8
(lp2978
I2
aI3
aI4
aI5
ag2976
tp2979
aa(lp2980
(I10
(lp2981
I0
a(lp2982
I4
aI5
aI6
atp2983
aa(lp2984
(I7
(lp2985
I7
aI8
a(lp2986
I18
aI19
aI20
aI21
atp2987
aa(lp2988
(I3
(lp2989
I12
a(lp2990
I14
atp2991
aa(lp2992
(I7
(lp2993
I26
aI27
a(lp2994
I34
aI35
aI36
aI37
aI38
aI39
atp2995
aa(lp2996
(I7
(lp2997
I22
aI23
a(lp2998
I32
aI33
aI34
atp2999
a(I2
g2998
(lp3000
I36
atp3001
a(I2
g2998
(lp3002
I38
atp3003
a(I3
g3000
g3002
tp3004
aa(lp3005
(I5
(lp3006
I17
a(lp3007
I19
aI20
atp3008
aa(lp3009
(I6
(lp3010
I14
aI15
a(lp3011
I18
atp3012
aa(lp3013
(I7
(lp3014
I25
aI26
aI27
aI28
a(lp3015
I34
atp3016
aa(lp3017
(I6
(lp3018
I7
aI8
a(lp3019
I21
aI22
aI23
aI24
atp3020
aa(lp3021
(I5
(lp3022
I0
a(lp3023
I12
aI13
aI14
atp3024
aa(lp3025
(I5
(lp3026
I1
a(lp3027
I10
atp3028
a(I7
(lp3029
I23
aI24
a(lp3030
I27
aI28
aI29
atp3031
aa(lp3032
(I7
(lp3033
I0
aI1
a(lp3034
I8
aI9
atp3035
a(I6
(lp3036
I22
aI23
a(lp3037
I25
atp3038
aa(lp3039
(I6
(lp3040
I31
a(lp3041
I40
atp3042
a(I7
g3040
(lp3043
I43
atp3044
aa(lp3045
(I9
(lp3046
I0
a(lp3047
I18
atp3048
aa(lp3049
(I10
(lp3050
I15
a(lp3051
I19
aI20
aI21
atp3052
aa(lp3053
(I2
(lp3054
I7
aI8
aI9
a(lp3055
I11
atp3056
aa(lp3057
(I10
(lp3058
I0
a(lp3059
I5
aI6
aI7
atp3060
aa(lp3061
(I8
(lp3062
I30
aI31
a(lp3063
I33
aI34
atp3064
aa(lp3065
(I1
(lp3066
I8
a(lp3067
I74
aI75
aI76
atp3068
aa(lp3069
(I6
(lp3070
I1
aI2
a(lp3071
I23
atp3072
aa(lp3073
(I7
(lp3074
I10
aI11
a(lp3075
I16
aI17
atp3076
a(I6
g3074
(lp3077
I27
aI28
atp3078
aa(lp3079
(I4
(lp3080
I1
aI2
aI3
a(lp3081
I4
aI5
atp3082
aa(lp3083
(I6
(lp3084
I6
aI7
a(lp3085
I9
atp3086
a(I6
g3084
(lp3087
I12
aI13
atp3088
a(I3
g3085
g3087
tp3089
a(I1
g3087
(lp3090
I16
aI17
aI18
atp3091
aa(lp3092
(I3
(lp3093
I3
aI4
a(lp3094
I6
atp3095
a(I3
(lp3096
I9
a(lp3097
I11
atp3098
aa(lp3099
(I8
(lp3100
I2
a(lp3101
I4
aI5
atp3102
aa(lp3103
(I4
(lp3104
I9
a(lp3105
I16
aI17
atp3106
aa(lp3107
(I6
(lp3108
I15
aI16
a(lp3109
I21
aI22
aI23
atp3110
aa(lp3111
(I3
(lp3112
I21
a(lp3113
I23
atp3114
aa(lp3115
(I7
(lp3116
I1
aI2
a(lp3117
I4
aI5
atp3118
aa(lp3119
(I6
(lp3120
I2
aI3
aI4
a(lp3121
I7
aI8
aI9
atp3122
a(I6
g3120
(lp3123
I11
atp3124
a(I3
g3121
g3123
tp3125
aa(lp3126
(I10
(lp3127
I10
aI11
aI12
aI13
a(lp3128
I17
aI18
atp3129
aa(lp3130
(I4
(lp3131
I0
aI1
a(lp3132
I3
atp3133
aa(lp3134
(I1
(lp3135
I22
a(lp3136
I26
aI27
atp3137
aa(lp3138
(I1
(lp3139
I15
a(lp3140
I23
aI24
atp3141
aa(lp3142
(I3
(lp3143
I11
a(lp3144
I15
atp3145
a(I3
(lp3146
I13
ag3144
tp3147
aa(lp3148
(I1
(lp3149
I0
a(lp3150
I7
aI8
atp3151
aa(lp3152
(I7
(lp3153
I5
a(lp3154
I17
aI18
aI19
atp3155
aa(lp3156
(I6
(lp3157
I7
aI8
a(lp3158
I21
aI22
aI23
aI24
atp3159
aa(lp3160
(I1
(lp3161
I0
a(lp3162
I2
aI3
atp3163
a(I7
g3162
(lp3164
I12
aI13
aI14
aI15
atp3165
a(I8
g3164
(lp3166
I19
aI20
atp3167
a(I6
g3166
(lp3168
I22
atp3169
a(I1
g3161
(lp3170
I31
atp3171
a(I8
g3164
g3170
tp3172
aa(lp3173
(I6
(lp3174
I16
aI17
aI18
a(lp3175
I30
aI31
atp3176
aa(lp3177
(I9
(lp3178
I7
aI8
aI9
a(lp3179
I12
atp3180
aa(lp3181
(I6
(lp3182
I4
aI5
a(lp3183
I9
aI10
aI11
atp3184
aa(lp3185
(I3
(lp3186
I38
aI39
a(lp3187
I41
atp3188
aa(lp3189
(I4
(lp3190
I1
a(lp3191
I2
aI3
atp3192
aa(lp3193
(I9
(lp3194
I10
aI11
aI12
a(lp3195
I22
aI23
aI24
aI25
aI26
atp3196
aa(lp3197
(I7
(lp3198
I2
aI3
a(lp3199
I6
aI7
aI8
atp3200
a(I2
g3199
(lp3201
I10
atp3202
aa(lp3203
(I10
(lp3204
I0
a(lp3205
I21
aI22
aI23
atp3206
aa(lp3207
(I9
(lp3208
I4
aI5
a(lp3209
I10
aI11
aI12
atp3210
aa(lp3211
(I7
(lp3212
I0
aI1
aI2
a(lp3213
I7
aI8
aI9
aI10
atp3214
aa(lp3215
(I1
(lp3216
I26
aI27
a(lp3217
I31
aI32
atp3218
aa(lp3219
(I5
(lp3220
I1
a(lp3221
I11
atp3222
aa(lp3223
(I6
(lp3224
I3
aI4
a(lp3225
I15
aI16
aI17
aI18
atp3226
aa(lp3227
(I3
(lp3228
I22
a(lp3229
I26
aI27
atp3230
aa(lp3231
(I7
(lp3232
I23
aI24
a(lp3233
I27
atp3234
aa(lp3235
(I6
(lp3236
I7
aI8
a(lp3237
I12
atp3238
aa(lp3239
(I6
(lp3240
I1
aI2
a(lp3241
I4
aI5
aI6
atp3242
aa(lp3243
(I3
(lp3244
I15
aI16
aI17
a(lp3245
I20
atp3246
aa(lp3247
(I3
(lp3248
I9
aI10
aI11
a(lp3249
I13
atp3250
aa(lp3251
(I9
(lp3252
I3
aI4
aI5
a(lp3253
I13
aI14
aI15
atp3254
aa(lp3255
(I8
(lp3256
I3
aI4
a(lp3257
I12
atp3258
a(I8
(lp3259
I8
ag3257
tp3260
aa(lp3261
(I4
(lp3262
I0
a(lp3263
I1
aI2
aI3
atp3264
aa(lp3265
(I8
(lp3266
I2
a(lp3267
I4
aI5
atp3268
aa(lp3269
(I3
(lp3270
I0
aI1
a(lp3271
I3
aI4
atp3272
aa(lp3273
(I7
(lp3274
I23
aI24
a(lp3275
I29
aI30
aI31
atp3276
aa(lp3277
(I1
(lp3278
I0
a(lp3279
I4
aI5
aI6
atp3280
aa(lp3281
(I6
(lp3282
I16
aI17
a(lp3283
I19
atp3284
aa(lp3285
(I9
(lp3286
I19
a(lp3287
I28
atp3288
aa(lp3289
(I2
(lp3290
I5
aI6
aI7
a(lp3291
I10
atp3292
a(I2
g3290
(lp3293
I12
atp3294
a(I3
g3291
g3293
tp3295
aa(lp3296
(I3
(lp3297
I4
a(lp3298
I18
aI19
atp3299
aa(lp3300
(I6
(lp3301
I4
a(lp3302
I8
atp3303
aa(lp3304
(I3
(lp3305
I0
aI1
a(lp3306
I3
atp3307
aa(lp3308
(I7
(lp3309
I0
aI1
aI2
a(lp3310
I8
aI9
atp3311
a(I7
g3309
(lp3312
I11
aI12
aI13
aI14
aI15
aI16
atp3313
a(I7
(lp3314
I4
aI5
aI6
ag3310
tp3315
a(I7
g3314
g3312
tp3316
aa(lp3317
(I7
(lp3318
I20
aI21
a(lp3319
I24
aI25
atp3320
aa(lp3321
(I1
(lp3322
I32
a(lp3323
I34
aI35
aI36
atp3324
aa(lp3325
(I6
(lp3326
I2
aI3
a(lp3327
I7
atp3328
aa(lp3329
(I6
(lp3330
I11
aI12
aI13
a(lp3331
I18
aI19
atp3332
aa(lp3333
(I2
(lp3334
I2
aI3
a(lp3335
I6
aI7
atp3336
a(I6
(lp3337
I22
aI23
a(lp3338
I26
aI27
atp3339
a(I5
g3335
g3338
tp3340
aa(lp3341
(I1
(lp3342
I0
a(lp3343
I2
aI3
atp3344
aa(lp3345
(I1
(lp3346
I0
aI1
a(lp3347
I3
aI4
aI5
aI6
atp3348
aa(lp3349
(I4
(lp3350
I0
aI1
a(lp3351
I3
atp3352
aa(lp3353
(I9
(lp3354
I2
a(lp3355
I11
atp3356
aa(lp3357
(I9
(lp3358
I0
a(lp3359
I11
atp3360
aa(lp3361
(I2
(lp3362
I11
aI12
aI13
a(lp3363
I29
aI30
atp3364
a(I2
(lp3365
I15
ag3363
tp3366
a(I8
g3362
(lp3367
I18
aI19
atp3368
a(I8
g3365
g3367
tp3369
a(I6
g3367
g3363
tp3370
a(I6
(lp3371
I22
aI23
ag3363
tp3372
aa(lp3373
(I4
(lp3374
I1
a(lp3375
I2
aI3
aI4
atp3376
aa(lp3377
(I6
(lp3378
I0
aI1
aI2
a(lp3379
I7
atp3380
a(I7
(lp3381
I14
aI15
a(lp3382
I22
aI23
aI24
aI25
aI26
aI27
atp3383
aa(lp3384
(I10
(lp3385
I24
aI25
aI26
aI27
a(lp3386
I49
aI50
aI51
atp3387
aa(lp3388
(I1
(lp3389
I21
a(lp3390
I23
aI24
atp3391
aa(lp3392
(I3
(lp3393
I0
a(lp3394
I2
atp3395
aa(lp3396
(I7
(lp3397
I17
a(lp3398
I40
aI41
aI42
aI43
aI44
aI45
aI46
aI47
aI48
atp3399
aa(lp3400
(I6
(lp3401
I11
aI12
a(lp3402
I17
aI18
aI19
aI20
aI21
atp3403
aa(lp3404
(I2
(lp3405
I24
aI25
aI26
a(lp3406
I28
atp3407
aa(lp3408
(I4
(lp3409
I0
a(lp3410
I1
aI2
aI3
atp3411
aa(lp3412
(I3
(lp3413
I11
a(lp3414
I13
atp3415
aa(lp3416
(I6
(lp3417
I4
aI5
aI6
a(lp3418
I11
aI12
aI13
atp3419
aa(lp3420
(I4
(lp3421
I0
a(lp3422
I1
atp3423
aa(lp3424
(I4
(lp3425
I1
a(lp3426
I2
aI3
aI4
atp3427
aa(lp3428
(I6
(lp3429
I21
a(lp3430
I25
atp3431
aa(lp3432
(I7
(lp3433
I2
a(lp3434
I7
aI8
atp3435
aa(lp3436
(I6
(lp3437
I38
aI39
aI40
a(lp3438
I49
atp3439
aa(lp3440
(I4
(lp3441
I0
a(lp3442
I1
aI2
aI3
atp3443
aa(lp3444
(I7
(lp3445
I0
aI1
a(lp3446
I7
atp3447
aa(lp3448
(I7
(lp3449
I0
aI1
a(lp3450
I5
aI6
aI7
aI8
atp3451
aa(lp3452
(I4
(lp3453
I0
a(lp3454
I1
atp3455
aa(lp3456
(I4
(lp3457
I1
a(lp3458
I2
aI3
atp3459
aa(lp3460
(I6
(lp3461
I3
aI4
a(lp3462
I16
aI17
aI18
atp3463
aa(lp3464
(I4
(lp3465
I9
a(lp3466
I10
atp3467
aa(lp3468
(I3
(lp3469
I0
a(lp3470
I2
aI3
atp3471
aa(lp3472
(I9
(lp3473
I14
aI15
aI16
a(lp3474
I23
aI24
atp3475
aa(lp3476
(I10
(lp3477
I20
a(lp3478
I28
aI29
atp3479
aa(lp3480
(I4
(lp3481
I6
aI7
a(lp3482
I8
atp3483
aa(lp3484
(I6
(lp3485
I0
a(lp3486
I6
atp3487
aa(lp3488
(I3
(lp3489
I0
aI1
a(lp3490
I3
atp3491
a(I3
g3489
(lp3492
I5
atp3493
a(I3
g3490
g3492
tp3494
aa(lp3495
(I7
(lp3496
I15
aI16
a(lp3497
I19
aI20
aI21
aI22
aI23
atp3498
aa(lp3499
(I3
(lp3500
I6
aI7
a(lp3501
I14
atp3502
aa(lp3503
(I3
(lp3504
I9
aI10
a(lp3505
I12
atp3506
a(I5
g3504
(lp3507
I22
atp3508
a(I5
g3505
g3507
tp3509
aa(lp3510
(I5
(lp3511
I0
a(lp3512
I12
aI13
atp3513
a(I5
g3511
(lp3514
I15
aI16
atp3515
aa(lp3516
(I7
(lp3517
I19
a(lp3518
I30
aI31
aI32
atp3519
aa(lp3520
(I8
(lp3521
I20
aI21
a(lp3522
I23
aI24
aI25
atp3523
aa(lp3524
(I9
(lp3525
I22
aI23
aI24
a(lp3526
I39
aI40
atp3527
aa(lp3528
(I4
(lp3529
I0
a(lp3530
I1
aI2
aI3
atp3531
aa(lp3532
(I6
(lp3533
I0
aI1
a(lp3534
I12
aI13
atp3535
aa(lp3536
(I6
(lp3537
I1
aI2
a(lp3538
I4
aI5
atp3539
a(I7
g3537
(lp3540
I7
aI8
aI9
aI10
aI11
atp3541
a(I4
g3538
g3540
tp3542
aa(lp3543
(I4
(lp3544
I9
a(lp3545
I10
aI11
aI12
atp3546
aa(lp3547
(I4
(lp3548
I3
a(lp3549
I8
atp3550
a(I1
(lp3551
I20
a(lp3552
I46
aI47
atp3553
a(I6
g3552
(lp3554
I53
atp3555
a(I6
g3552
(lp3556
I55
aI56
aI57
aI58
atp3557
aa(lp3558
(I7
(lp3559
I0
aI1
a(lp3560
I4
atp3561
a(I2
g3560
(lp3562
I6
atp3563
a(I2
g3560
(lp3564
I12
atp3565
aa(lp3566
(I7
(lp3567
I2
aI3
a(lp3568
I11
aI12
atp3569
aa(lp3570
(I4
(lp3571
I0
a(lp3572
I1
aI2
atp3573
aa(lp3574
(I9
(lp3575
I11
a(lp3576
I21
aI22
aI23
aI24
atp3577
aa(lp3578
(I8
(lp3579
I6
a(lp3580
I8
aI9
aI10
aI11
aI12
atp3581
aa(lp3582
(I7
(lp3583
I0
aI1
aI2
a(lp3584
I4
atp3585
aa(lp3586
(I7
(lp3587
I1
aI2
a(lp3588
I16
aI17
atp3589
aa(lp3590
(I6
(lp3591
I21
aI22
aI23
a(lp3592
I31
atp3593
aa(lp3594
(I6
(lp3595
I1
aI2
a(lp3596
I4
atp3597
aa(lp3598
(I6
(lp3599
I6
aI7
a(lp3600
I11
aI12
aI13
atp3601
aa(lp3602
(I3
(lp3603
I0
aI1
aI2
aI3
a(lp3604
I5
atp3605
aa(lp3606
(I3
(lp3607
I34
a(lp3608
I42
atp3609
a(I3
g3608
(lp3610
I45
atp3611
aa(lp3612
(I6
(lp3613
I5
aI6
a(lp3614
I12
atp3615
aa(lp3616
(I3
(lp3617
I33
aI34
aI35
a(lp3618
I37
atp3619
aa(lp3620
(I2
(lp3621
I8
a(lp3622
I11
atp3623
a(I2
g3621
(lp3624
I31
aI32
aI33
aI34
aI35
atp3625
a(I1
g3622
(lp3626
I14
aI15
atp3627
a(I6
g3626
g3624
tp3628
aa(lp3629
(I2
(lp3630
I6
aI7
a(lp3631
I9
atp3632
aa(lp3633
(I3
(lp3634
I16
a(lp3635
I19
atp3636
aa(lp3637
(I5
(lp3638
I1
aI2
a(lp3639
I23
atp3640
aa(lp3641
(I8
(lp3642
I0
aI1
aI2
a(lp3643
I4
aI5
aI6
atp3644
aa(lp3645
(I3
(lp3646
I0
a(lp3647
I2
atp3648
aa(lp3649
(I4
(lp3650
I0
aI1
a(lp3651
I2
aI3
atp3652
a(I8
g3651
(lp3653
I5
aI6
atp3654
aa(lp3655
(I7
(lp3656
I27
aI28
aI29
a(lp3657
I37
atp3658
a(I7
g3656
(lp3659
I39
aI40
aI41
atp3660
aa(lp3661
(I6
(lp3662
I21
aI22
a(lp3663
I24
aI25
atp3664
a(I7
(lp3665
I31
aI32
a(lp3666
I39
aI40
aI41
atp3667
a(I7
g3665
(lp3668
I43
atp3669
a(I7
(lp3670
I35
aI36
ag3666
tp3671
a(I7
g3670
g3668
tp3672
a(I7
(lp3673
I38
ag3666
tp3674
a(I7
g3673
g3668
tp3675
aa(lp3676
(I8
(lp3677
I0
aI1
aI2
aI3
a(lp3678
I5
aI6
aI7
atp3679
aa(lp3680
(I8
(lp3681
I3
aI4
a(lp3682
I6
aI7
atp3683
aa(lp3684
(I1
(lp3685
I3
aI4
a(lp3686
I6
aI7
atp3687
aa(lp3688
(I3
(lp3689
I0
aI1
a(lp3690
I3
atp3691
aa(lp3692
(I6
(lp3693
I4
aI5
aI6
a(lp3694
I10
aI11
aI12
atp3695
aa(lp3696
(I7
(lp3697
I0
aI1
a(lp3698
I6
aI7
atp3699
a(I2
g3698
(lp3700
I10
atp3701
a(I2
g3698
(lp3702
I12
atp3703
a(I3
g3700
g3702
tp3704
aa(lp3705
(I7
(lp3706
I0
a(lp3707
I2
aI3
atp3708
aa(lp3709
(I9
(lp3710
I0
aI1
aI2
a(lp3711
I10
aI11
atp3712
aa(lp3713
(I3
(lp3714
I6
aI7
a(lp3715
I9
atp3716
aa(lp3717
(I6
(lp3718
I0
aI1
a(lp3719
I35
atp3720
aa(lp3721
(I9
(lp3722
I0
a(lp3723
I21
atp3724
aa(lp3725
(I8
(lp3726
I1
aI2
aI3
a(lp3727
I7
atp3728
aa(lp3729
(I3
(lp3730
I25
aI26
a(lp3731
I29
atp3732
aa(lp3733
(I2
(lp3734
I0
aI1
aI2
a(lp3735
I4
atp3736
aa(lp3737
(I3
(lp3738
I12
a(lp3739
I14
atp3740
aa(lp3741
(I7
(lp3742
I1
aI2
a(lp3743
I4
aI5
atp3744
a(I6
g3742
(lp3745
I7
atp3746
a(I6
g3742
(lp3747
I9
atp3748
a(I2
g3743
g3745
tp3749
a(I2
g3743
g3747
tp3750
a(I3
g3745
g3747
tp3751
aa(lp3752
(I8
(lp3753
I0
aI1
a(lp3754
I3
aI4
atp3755
aa(lp3756
(I6
(lp3757
I1
a(lp3758
I7
atp3759
a(I6
g3757
(lp3760
I17
aI18
atp3761
a(I6
(lp3762
I3
ag3758
tp3763
a(I6
g3762
g3760
tp3764
a(I1
g3758
(lp3765
I34
aI35
atp3766
a(I1
g3760
g3765
tp3767
a(I1
g3758
(lp3768
I37
aI38
aI39
atp3769
a(I1
g3760
g3768
tp3770
a(I1
g3758
(lp3771
I42
aI43
aI44
atp3772
a(I1
g3760
g3771
tp3773
aa(lp3774
(I6
(lp3775
I4
aI5
aI6
a(lp3776
I10
aI11
atp3777
aa(lp3778
(I7
(lp3779
I0
aI1
a(lp3780
I6
aI7
aI8
aI9
atp3781
aa(lp3782
(I6
(lp3783
I4
aI5
a(lp3784
I13
atp3785
a(I6
g3783
(lp3786
I16
atp3787
aa(lp3788
(I5
(lp3789
I2
a(lp3790
I35
aI36
atp3791
aa(lp3792
(I5
(lp3793
I0
a(lp3794
I6
aI7
atp3795
aa(lp3796
(I9
(lp3797
I23
aI24
aI25
a(lp3798
I35
aI36
aI37
aI38
atp3799
aa(lp3800
(I1
(lp3801
I20
aI21
a(lp3802
I26
aI27
atp3803
aa(lp3804
(I4
(lp3805
I0
aI1
a(lp3806
I3
atp3807
aa(lp3808
(I4
(lp3809
I7
a(lp3810
I16
aI17
atp3811
aa(lp3812
(I9
(lp3813
I0
a(lp3814
I34
aI35
aI36
atp3815
a(I9
(lp3816
I10
aI11
aI12
ag3814
tp3817
aa(lp3818
(I4
(lp3819
I14
a(lp3820
I15
aI16
atp3821
aa(lp3822
(I10
(lp3823
I11
a(lp3824
I20
aI21
aI22
atp3825
aa(lp3826
(I4
(lp3827
I8
a(lp3828
I9
atp3829
aa(lp3830
(I7
(lp3831
I16
aI17
a(lp3832
I33
aI34
aI35
aI36
aI37
atp3833
aa(lp3834
(I6
(lp3835
I4
a(lp3836
I10
aI11
aI12
atp3837
aa(lp3838
(I2
(lp3839
I5
a(lp3840
I7
atp3841
a(I2
g3839
(lp3842
I9
atp3843
a(I3
g3840
g3842
tp3844
aa(lp3845
(I5
(lp3846
I2
a(lp3847
I4
aI5
atp3848
aa(lp3849
(I4
(lp3850
I0
aI1
a(lp3851
I2
atp3852
aa(lp3853
(I6
(lp3854
I4
aI5
a(lp3855
I9
atp3856
aa(lp3857
(I4
(lp3858
I1
a(lp3859
I2
aI3
aI4
atp3860
aa(lp3861
(I7
(lp3862
I39
aI40
a(lp3863
I46
aI47
atp3864
aa(lp3865
(I6
(lp3866
I0
aI1
a(lp3867
I4
atp3868
aa(lp3869
(I8
(lp3870
I25
aI26
aI27
aI28
aI29
aI30
aI31
aI32
aI33
a(lp3871
I42
aI43
atp3872
aa(lp3873
(I7
(lp3874
I17
aI18
a(lp3875
I21
aI22
aI23
atp3876
a(I2
g3875
(lp3877
I26
atp3878
aa(lp3879
(I3
(lp3880
I0
aI1
aI2
aI3
a(lp3881
I5
atp3882
aa(lp3883
(I4
(lp3884
I0
a(lp3885
I1
aI2
atp3886
aa(lp3887
(I6
(lp3888
I13
a(lp3889
I18
aI19
atp3890
aa(lp3891
(I8
(lp3892
I6
aI7
a(lp3893
I8
aI9
atp3894
aa(lp3895
(I3
(lp3896
I17
a(lp3897
I19
atp3898
a(I3
(lp3899
I25
a(lp3900
I27
aI28
atp3901
aa(lp3902
(I9
(lp3903
I3
aI4
aI5
a(lp3904
I20
aI21
aI22
aI23
atp3905
aa(lp3906
(I5
(lp3907
I1
a(lp3908
I19
atp3909
aa(lp3910
(I3
(lp3911
I12
aI13
a(lp3912
I15
atp3913
aa(lp3914
(I7
(lp3915
I0
aI1
a(lp3916
I7
aI8
aI9
atp3917
aa(lp3918
(I7
(lp3919
I11
aI12
a(lp3920
I17
aI18
aI19
atp3921
aa(lp3922
(I9
(lp3923
I0
aI1
a(lp3924
I10
aI11
aI12
aI13
atp3925
aa(lp3926
(I4
(lp3927
I1
a(lp3928
I2
aI3
atp3929
aa(lp3930
(I4
(lp3931
I6
aI7
a(lp3932
I18
atp3933
aa(lp3934
(I6
(lp3935
I4
a(lp3936
I8
aI9
atp3937
aa(lp3938
(I6
(lp3939
I0
aI1
a(lp3940
I21
atp3941
aa(lp3942
(I6
(lp3943
I0
aI1
aI2
a(lp3944
I6
aI7
aI8
atp3945
aa(lp3946
(I1
(lp3947
I2
a(lp3948
I10
aI11
atp3949
aa(lp3950
(I4
(lp3951
I9
a(lp3952
I10
atp3953
a(I2
g3952
(lp3954
I26
atp3955
aa(lp3956
(I7
(lp3957
I11
aI12
a(lp3958
I17
aI18
aI19
atp3959
a(I7
g3957
(lp3960
I25
aI26
atp3961
aa(lp3962
(I3
(lp3963
I7
a(lp3964
I9
atp3965
aa(lp3966
(I4
(lp3967
I5
aI6
a(lp3968
I14
atp3969
a(I4
(lp3970
I13
ag3968
tp3971
aa(lp3972
(I8
(lp3973
I4
a(lp3974
I10
aI11
atp3975
a(I7
g3974
(lp3976
I15
aI16
aI17
aI18
atp3977
a(I8
g3973
(lp3978
I21
aI22
aI23
atp3979
a(I8
g3976
g3978
tp3980
aa(lp3981
(I4
(lp3982
I8
a(lp3983
I9
aI10
atp3984
aa(lp3985
(I8
(lp3986
I17
aI18
aI19
a(lp3987
I21
aI22
atp3988
aa(lp3989
(I6
(lp3990
I1
a(lp3991
I15
atp3992
a(I2
(lp3993
I5
aI6
ag3991
tp3994
aa(lp3995
(I7
(lp3996
I12
aI13
a(lp3997
I18
aI19
aI20
aI21
atp3998
aa(lp3999
(I4
(lp4000
I0
aI1
a(lp4001
I11
atp4002
aa(lp4003
(I8
(lp4004
I0
a(lp4005
I2
aI3
atp4006
aa(lp4007
(I9
(lp4008
I0
aI1
aI2
a(lp4009
I7
aI8
atp4010
aa(lp4011
(I7
(lp4012
I0
aI1
a(lp4013
I4
atp4014
aa(lp4015
(I4
(lp4016
I12
a(lp4017
I13
atp4018
aa(lp4019
(I3
(lp4020
I39
aI40
aI41
a(lp4021
I43
atp4022
a(I3
g4020
(lp4023
I45
aI46
atp4024
a(I3
g4021
g4023
tp4025
aa(lp4026
(I5
(lp4027
I8
aI9
a(lp4028
I38
atp4029
aa(lp4030
(I8
(lp4031
I17
aI18
a(lp4032
I20
aI21
atp4033
aa(lp4034
(I3
(lp4035
I6
aI7
a(lp4036
I17
atp4037
aa(lp4038
(I4
(lp4039
I0
aI1
a(lp4040
I2
atp4041
aa(lp4042
(I2
(lp4043
I14
aI15
aI16
aI17
a(lp4044
I19
aI20
atp4045
a(I2
g4043
(lp4046
I47
aI48
atp4047
aa(lp4048
(I3
(lp4049
I0
a(lp4050
I2
atp4051
aa(lp4052
(I8
(lp4053
I1
aI2
aI3
aI4
aI5
a(lp4054
I40
aI41
atp4055
aa(lp4056
(I7
(lp4057
I32
aI33
aI34
a(lp4058
I41
atp4059
aa(lp4060
(I9
(lp4061
I15
aI16
a(lp4062
I21
aI22
aI23
atp4063
a(I9
g4062
(lp4064
I29
aI30
atp4065
aa(lp4066
(I6
(lp4067
I3
aI4
aI5
a(lp4068
I10
aI11
atp4069
aa(lp4070
(I9
(lp4071
I24
aI25
a(lp4072
I29
aI30
aI31
atp4073
aa(lp4074
(I6
(lp4075
I0
aI1
a(lp4076
I5
aI6
atp4077
aa(lp4078
(I3
(lp4079
I36
a(lp4080
I38
atp4081
aa(lp4082
(I10
(lp4083
I3
aI4
a(lp4084
I8
aI9
atp4085
aa(lp4086
(I4
(lp4087
I0
aI1
a(lp4088
I3
atp4089
aa(lp4090
(I3
(lp4091
I0
a(lp4092
I2
atp4093
aa(lp4094
(I8
(lp4095
I0
a(lp4096
I2
aI3
atp4097
aa(lp4098
(I7
(lp4099
I1
aI2
a(lp4100
I9
aI10
aI11
aI12
aI13
aI14
atp4101
aa(lp4102
(I6
(lp4103
I0
aI1
a(lp4104
I14
aI15
atp4105
aa(lp4106
(I2
(lp4107
I11
aI12
a(lp4108
I14
atp4109
aa(lp4110
(I9
(lp4111
I5
aI6
aI7
a(lp4112
I17
atp4113
aa(lp4114
(I5
(lp4115
I29
aI30
a(lp4116
I51
atp4117
a(I5
(lp4118
I33
aI34
ag4116
tp4119
aa(lp4120
(I1
(lp4121
I0
a(lp4122
I6
aI7
atp4123
aa(lp4124
(I9
(lp4125
I6
a(lp4126
I8
atp4127
aa(lp4128
(I7
(lp4129
I9
aI10
a(lp4130
I12
aI13
atp4131
a(I7
(lp4132
I22
aI23
a(lp4133
I25
aI26
atp4134
a(I7
g4132
(lp4135
I37
aI38
atp4136
a(I7
g4132
(lp4137
I66
aI67
atp4138
a(I8
(lp4139
I1
a(lp4140
I69
aI70
atp4141
a(I7
g4140
(lp4142
I74
atp4143
aa(lp4144
(I6
(lp4145
I0
aI1
aI2
a(lp4146
I7
atp4147
a(I6
(lp4148
I19
aI20
aI21
a(lp4149
I26
atp4150
aa(lp4151
(I3
(lp4152
I7
aI8
aI9
a(lp4153
I12
atp4154
a(I3
g4152
(lp4155
I14
atp4156
a(I3
g4153
g4155
tp4157
aa(lp4158
(I9
(lp4159
I0
aI1
aI2
a(lp4160
I5
atp4161
aa(lp4162
(I9
(lp4163
I19
aI20
aI21
a(lp4164
I27
aI28
atp4165
aa(lp4166
(I9
(lp4167
I4
aI5
aI6
a(lp4168
I15
aI16
aI17
aI18
atp4169
a(I3
(lp4170
I28
aI29
aI30
a(lp4171
I32
atp4172
aa(lp4173
(I1
(lp4174
I0
a(lp4175
I5
aI6
aI7
atp4176
aa(lp4177
(I6
(lp4178
I48
aI49
a(lp4179
I61
atp4180
a(I3
(lp4181
I58
ag4179
tp4182
aa(lp4183
(I2
(lp4184
I0
aI1
a(lp4185
I3
atp4186
aa(lp4187
(I8
(lp4188
I0
a(lp4189
I6
aI7
aI8
atp4190
aa(lp4191
(I6
(lp4192
I15
aI16
a(lp4193
I21
aI22
aI23
atp4194
aa(lp4195
(I10
(lp4196
I12
aI13
a(lp4197
I20
aI21
aI22
atp4198
aa(lp4199
(I7
(lp4200
I5
aI6
aI7
a(lp4201
I10
aI11
aI12
aI13
aI14
aI15
atp4202
a(I2
g4201
(lp4203
I17
aI18
aI19
atp4204
a(I7
(lp4205
I22
aI23
a(lp4206
I26
aI27
aI28
aI29
aI30
atp4207
a(I2
g4206
(lp4208
I33
aI34
aI35
atp4209
aa(lp4210
(I3
(lp4211
I0
aI1
aI2
aI3
a(lp4212
I5
atp4213
a(I3
g4211
(lp4214
I7
atp4215
a(I3
g4212
g4214
tp4216
aa(lp4217
(I1
(lp4218
I16
a(lp4219
I18
aI19
atp4220
aa(lp4221
(I1
(lp4222
I13
aI14
a(lp4223
I16
aI17
atp4224
aa(lp4225
(I1
(lp4226
I2
a(lp4227
I3
aI4
atp4228
a(I6
(lp4229
I10
aI11
a(lp4230
I13
atp4231
a(I1
g4226
(lp4232
I15
aI16
atp4233
a(I7
g4232
(lp4234
I28
aI29
atp4235
a(I6
g4232
(lp4236
I31
atp4237
a(I4
g4226
g4234
tp4238
a(I2
g4234
g4236
tp4239
aa(lp4240
(I3
(lp4241
I0
a(lp4242
I2
aI3
atp4243
aa(lp4244
(I7
(lp4245
I7
aI8
a(lp4246
I10
aI11
atp4247
aa(lp4248
(I9
(lp4249
I29
aI30
aI31
a(lp4250
I36
aI37
aI38
aI39
atp4251
aa(lp4252
(I9
(lp4253
I13
aI14
aI15
a(lp4254
I21
aI22
atp4255
aa(lp4256
(I6
(lp4257
I27
aI28
a(lp4258
I30
atp4259
aa(lp4260
(I9
(lp4261
I29
aI30
aI31
a(lp4262
I36
aI37
aI38
aI39
atp4263
aa(lp4264
(I4
(lp4265
I0
aI1
a(lp4266
I3
atp4267
aa(lp4268
(I6
(lp4269
I2
aI3
a(lp4270
I8
atp4271
aa(lp4272
(I6
(lp4273
I46
aI47
aI48
a(lp4274
I63
atp4275
aa(lp4276
(I3
(lp4277
I0
a(lp4278
I2
atp4279
a(I4
g4277
(lp4280
I4
atp4281
a(I4
g4278
g4280
tp4282
aa(lp4283
(I9
(lp4284
I4
aI5
aI6
aI7
a(lp4285
I28
atp4286
a(I9
(lp4287
I20
aI21
aI22
ag4285
tp4288
aa(lp4289
(I7
(lp4290
I0
a(lp4291
I5
aI6
aI7
aI8
atp4292
a(I6
g4290
(lp4293
I10
atp4294
a(I7
g4290
(lp4295
I18
atp4296
a(I2
g4291
g4293
tp4297
aa(lp4298
(I9
(lp4299
I0
a(lp4300
I16
atp4301
aa(lp4302
(I7
(lp4303
I0
a(lp4304
I3
atp4305
aa(lp4306
(I1
(lp4307
I13
aI14
a(lp4308
I31
aI32
atp4309
aa(lp4310
(I10
(lp4311
I8
a(lp4312
I38
aI39
aI40
atp4313
aa(lp4314
(I3
(lp4315
I32
a(lp4316
I37
atp4317
aa(lp4318
(I3
(lp4319
I0
a(lp4320
I2
aI3
atp4321
aa(lp4322
(I4
(lp4323
I7
a(lp4324
I8
aI9
atp4325
aa(lp4326
(I7
(lp4327
I0
a(lp4328
I6
aI7
atp4329
aa(lp4330
(I8
(lp4331
I23
aI24
a(lp4332
I27
aI28
atp4333
aa(lp4334
(I6
(lp4335
I11
aI12
a(lp4336
I17
aI18
aI19
atp4337
aa(lp4338
(I3
(lp4339
I17
aI18
a(lp4340
I20
aI21
atp4341
aa(lp4342
(I3
(lp4343
I14
a(lp4344
I17
atp4345
aa(lp4346
(I3
(lp4347
I12
aI13
a(lp4348
I16
atp4349
aa(lp4350
(I6
(lp4351
I3
aI4
a(lp4352
I16
aI17
aI18
aI19
atp4353
aa(lp4354
(I9
(lp4355
I13
aI14
aI15
a(lp4356
I20
atp4357
aa(lp4358
(I7
(lp4359
I35
aI36
a(lp4360
I41
aI42
aI43
aI44
atp4361
a(I6
g4359
(lp4362
I46
aI47
atp4363
a(I2
g4360
g4362
tp4364
aa(lp4365
(I7
(lp4366
I0
a(lp4367
I8
aI9
aI10
aI11
atp4368
aa(lp4369
(I6
(lp4370
I11
aI12
a(lp4371
I17
aI18
aI19
atp4372
aa(lp4373
(I6
(lp4374
I69
a(lp4375
I73
atp4376
aa(lp4377
(I1
(lp4378
I0
aI1
a(lp4379
I3
aI4
atp4380
a(I6
g4379
(lp4381
I38
aI39
atp4382
aa(lp4383
(I5
(lp4384
I6
a(lp4385
I8
atp4386
aa(lp4387
(I4
(lp4388
I0
a(lp4389
I1
atp4390
aa(lp4391
(I7
(lp4392
I27
aI28
a(lp4393
I32
aI33
atp4394
aa(lp4395
(I4
(lp4396
I1
a(lp4397
I2
aI3
atp4398
aa(lp4399
(I6
(lp4400
I0
aI1
aI2
aI3
a(lp4401
I34
atp4402
aa(lp4403
(I10
(lp4404
I14
a(lp4405
I24
aI25
atp4406
aa(lp4407
(I3
(lp4408
I13
aI14
a(lp4409
I16
atp4410
aa(lp4411
(I6
(lp4412
I11
aI12
a(lp4413
I17
aI18
aI19
aI20
atp4414
aa(lp4415
(I6
(lp4416
I0
aI1
a(lp4417
I6
atp4418
aa(lp4419
(I4
(lp4420
I15
a(lp4421
I16
atp4422
a(I1
g4420
(lp4423
I17
aI18
atp4424
a(I8
g4421
g4423
tp4425
a(I1
g4420
(lp4426
I22
atp4427
a(I1
g4420
(lp4428
I28
atp4429
aa(lp4430
(I3
(lp4431
I0
a(lp4432
I2
aI3
atp4433
aa(lp4434
(I9
(lp4435
I0
aI1
aI2
a(lp4436
I20
aI21
aI22
aI23
atp4437
aa(lp4438
(I10
(lp4439
I0
a(lp4440
I10
atp4441
aa(lp4442
(I4
(lp4443
I9
a(lp4444
I10
aI11
aI12
atp4445
aa(lp4446
(I9
(lp4447
I16
aI17
aI18
a(lp4448
I21
atp4449
aa(lp4450
(I7
(lp4451
I19
a(lp4452
I23
aI24
atp4453
a(I2
g4452
(lp4454
I27
aI28
aI29
atp4455
aa(lp4456
(I2
(lp4457
I17
aI18
a(lp4458
I20
atp4459
aa(lp4460
(I3
(lp4461
I12
aI13
a(lp4462
I15
atp4463
aa(lp4464
(I6
(lp4465
I12
aI13
a(lp4466
I19
atp4467
aa(lp4468
(I4
(lp4469
I0
a(lp4470
I1
aI2
aI3
atp4471
aa(lp4472
(I4
(lp4473
I1
a(lp4474
I2
aI3
atp4475
aa(lp4476
(I1
(lp4477
I0
a(lp4478
I2
aI3
atp4479
aa(lp4480
(I10
(lp4481
I8
aI9
aI10
a(lp4482
I14
aI15
atp4483
aa(lp4484
(I2
(lp4485
I13
aI14
a(lp4486
I16
atp4487
aa(lp4488
(I3
(lp4489
I0
a(lp4490
I2
atp4491
aa(lp4492
(I4
(lp4493
I0
a(lp4494
I1
aI2
aI3
aI4
atp4495
aa(lp4496
(I8
(lp4497
I0
a(lp4498
I2
aI3
atp4499
aa(lp4500
(I9
(lp4501
I0
aI1
aI2
aI3
a(lp4502
I42
aI43
atp4503
aa(lp4504
(I4
(lp4505
I0
a(lp4506
I2
atp4507
aa(lp4508
(I6
(lp4509
I6
aI7
a(lp4510
I9
atp4511
aa(lp4512
(I10
(lp4513
I3
aI4
a(lp4514
I18
aI19
aI20
atp4515
aa(lp4516
(I5
(lp4517
I12
a(lp4518
I22
atp4519
aa(lp4520
(I9
(lp4521
I0
a(lp4522
I12
aI13
aI14
atp4523
aa(lp4524
(I9
(lp4525
I11
aI12
aI13
a(lp4526
I29
atp4527
aa(lp4528
(I6
(lp4529
I8
aI9
a(lp4530
I15
aI16
aI17
atp4531
aa(lp4532
(I7
(lp4533
I9
aI10
aI11
a(lp4534
I22
aI23
aI24
aI25
aI26
aI27
aI28
atp4535
aa(lp4536
(I3
(lp4537
I0
a(lp4538
I2
atp4539
aa(lp4540
(I4
(lp4541
I0
a(lp4542
I1
atp4543
aa(lp4544
(I9
(lp4545
I22
aI23
a(lp4546
I25
atp4547
aa(lp4548
(I6
(lp4549
I8
aI9
a(lp4550
I16
atp4551
a(I6
(lp4552
I19
aI20
a(lp4553
I34
aI35
atp4554
aa(lp4555
(I1
(lp4556
I17
a(lp4557
I20
aI21
atp4558
aa(lp4559
(I6
(lp4560
I0
a(lp4561
I13
atp4562
a(I6
(lp4563
I4
ag4561
tp4564
aa(lp4565
(I9
(lp4566
I11
aI12
aI13
a(lp4567
I19
aI20
aI21
aI22
atp4568
aa(lp4569
(I9
(lp4570
I0
a(lp4571
I11
aI12
aI13
aI14
atp4572
aa(lp4573
(I6
(lp4574
I0
aI1
a(lp4575
I10
aI11
atp4576
aa(lp4577
(I7
(lp4578
I0
aI1
aI2
a(lp4579
I7
aI8
aI9
atp4580
aa(lp4581
(I2
(lp4582
I0
aI1
aI2
aI3
a(lp4583
I30
aI31
aI32
atp4584
a(I8
g4582
(lp4585
I21
aI22
atp4586
a(I8
g4582
(lp4587
I70
atp4588
aa(lp4589
(I6
(lp4590
I14
aI15
a(lp4591
I20
atp4592
aa(lp4593
(I1
(lp4594
I18
a(lp4595
I23
atp4596
aa(lp4597
(I6
(lp4598
I20
a(lp4599
I30
aI31
atp4600
aa(lp4601
(I6
(lp4602
I3
aI4
a(lp4603
I8
aI9
aI10
atp4604
aa(lp4605
(I4
(lp4606
I0
a(lp4607
I1
aI2
aI3
atp4608
aa(lp4609
(I7
(lp4610
I0
a(lp4611
I4
aI5
aI6
atp4612
aa(lp4613
(I8
(lp4614
I23
aI24
a(lp4615
I26
aI27
aI28
atp4616
aa(lp4617
(I1
(lp4618
I3
a(lp4619
I5
aI6
atp4620
a(I7
g4619
(lp4621
I12
aI13
aI14
aI15
atp4622
aa(lp4623
(I7
(lp4624
I0
a(lp4625
I8
aI9
aI10
aI11
aI12
aI13
atp4626
aa(lp4627
(I8
(lp4628
I6
a(lp4629
I10
aI11
atp4630
a(I6
g4629
(lp4631
I13
aI14
atp4632
aa(lp4633
(I9
(lp4634
I22
a(lp4635
I29
atp4636
aa(lp4637
(I6
(lp4638
I12
aI13
a(lp4639
I39
atp4640
aa(lp4641
(I6
(lp4642
I17
aI18
a(lp4643
I20
aI21
aI22
atp4644
aa(lp4645
(I7
(lp4646
I12
aI13
a(lp4647
I23
aI24
aI25
aI26
atp4648
aa(lp4649
(I9
(lp4650
I2
a(lp4651
I10
atp4652
aa(lp4653
(I9
(lp4654
I10
aI11
aI12
a(lp4655
I22
aI23
aI24
aI25
aI26
atp4656
aa(lp4657
(I6
(lp4658
I6
aI7
aI8
a(lp4659
I12
aI13
aI14
aI15
atp4660
aa(lp4661
(I9
(lp4662
I0
aI1
aI2
a(lp4663
I15
aI16
aI17
atp4664
aa(lp4665
(I7
(lp4666
I0
aI1
aI2
a(lp4667
I8
aI9
aI10
atp4668
aa(lp4669
(I7
(lp4670
I1
aI2
a(lp4671
I4
aI5
aI6
atp4672
aa(lp4673
(I3
(lp4674
I17
a(lp4675
I30
atp4676
a(I3
(lp4677
I23
aI24
aI25
aI26
ag4675
tp4678
a(I3
(lp4679
I28
ag4675
tp4680
aa(lp4681
(I3
(lp4682
I4
aI5
a(lp4683
I7
atp4684
a(I1
(lp4685
I18
a(lp4686
I20
aI21
aI22
aI23
atp4687
aa(lp4688
(I9
(lp4689
I7
aI8
aI9
a(lp4690
I14
aI15
aI16
atp4691
aa(lp4692
(I1
(lp4693
I1
aI2
a(lp4694
I4
aI5
atp4695
aa(lp4696
(I6
(lp4697
I17
aI18
a(lp4698
I22
aI23
aI24
atp4699
aa(lp4700
(I1
(lp4701
I23
a(lp4702
I25
aI26
atp4703
aa(lp4704
(I6
(lp4705
I11
aI12
a(lp4706
I17
aI18
aI19
atp4707
aa(lp4708
(I10
(lp4709
I13
a(lp4710
I18
aI19
aI20
atp4711
aa(lp4712
(I3
(lp4713
I31
a(lp4714
I33
atp4715
aa(lp4716
(I1
(lp4717
I0
a(lp4718
I5
aI6
aI7
atp4719
aa(lp4720
(I4
(lp4721
I12
a(lp4722
I13
atp4723
aa(lp4724
(I5
(lp4725
I17
a(lp4726
I19
aI20
aI21
atp4727
aa(lp4728
(I4
(lp4729
I0
aI1
a(lp4730
I2
aI3
aI4
aI5
aI6
atp4731
aa(lp4732
(I2
(lp4733
I11
aI12
a(lp4734
I15
atp4735
aa(lp4736
(I5
(lp4737
I11
a(lp4738
I28
atp4739
a(I5
(lp4740
I25
ag4738
tp4741
aa(lp4742
(I1
(lp4743
I13
a(lp4744
I15
aI16
aI17
atp4745
aa(lp4746
(I4
(lp4747
I0
a(lp4748
I4
atp4749
a(I2
g4748
(lp4750
I7
atp4751
a(I1
g4747
(lp4752
I16
aI17
atp4753
a(I1
g4750
g4752
tp4754
a(I1
g4747
(lp4755
I20
aI21
atp4756
a(I1
g4750
g4755
tp4757
aa(lp4758
(I9
(lp4759
I1
a(lp4760
I3
atp4761
aa(lp4762
(I9
(lp4763
I17
a(lp4764
I30
aI31
atp4765
aa(lp4766
(I7
(lp4767
I0
aI1
a(lp4768
I11
atp4769
aa(lp4770
(I6
(lp4771
I11
aI12
aI13
a(lp4772
I18
aI19
aI20
aI21
atp4773
aa(lp4774
(I4
(lp4775
I0
a(lp4776
I1
aI2
atp4777
aa(lp4778
(I7
(lp4779
I10
a(lp4780
I15
atp4781
a(I7
g4779
(lp4782
I17
aI18
aI19
aI20
aI21
atp4783
aa(lp4784
(I3
(lp4785
I14
aI15
a(lp4786
I20
atp4787
aa(lp4788
(I7
(lp4789
I18
aI19
aI20
a(lp4790
I28
aI29
aI30
atp4791
a(I7
g4789
(lp4792
I32
atp4793
aa(lp4794
(I1
(lp4795
I1
a(lp4796
I5
atp4797
a(I6
g4796
(lp4798
I7
atp4799
aa(lp4800
(I2
(lp4801
I29
a(lp4802
I38
atp4803
a(I6
(lp4804
I35
ag4802
tp4805
aa(lp4806
(I6
(lp4807
I5
a(lp4808
I12
atp4809
aa(lp4810
(I9
(lp4811
I0
a(lp4812
I21
atp4813
aa(lp4814
(I1
(lp4815
I3
a(lp4816
I12
aI13
atp4817
aa(lp4818
(I7
(lp4819
I4
aI5
aI6
a(lp4820
I12
aI13
aI14
atp4821
aa(lp4822
(I4
(lp4823
I0
a(lp4824
I1
atp4825
aa(lp4826
(I9
(lp4827
I0
aI1
a(lp4828
I17
atp4829
aa(lp4830
(I2
(lp4831
I0
aI1
aI2
aI3
aI4
a(lp4832
I6
atp4833
aa(lp4834
(I2
(lp4835
I31
aI32
a(lp4836
I35
aI36
atp4837
aa(lp4838
(I1
(lp4839
I16
aI17
a(lp4840
I19
aI20
atp4841
aa(lp4842
(I6
(lp4843
I1
a(lp4844
I5
aI6
atp4845
aa(lp4846
(I6
(lp4847
I0
aI1
a(lp4848
I5
aI6
aI7
atp4849
aa(lp4850
(I7
(lp4851
I17
aI18
a(lp4852
I24
aI25
aI26
aI27
aI28
atp4853
aa(lp4854
(I3
(lp4855
I36
a(lp4856
I38
aI39
atp4857
aa(lp4858
(I5
(lp4859
I12
a(lp4860
I15
atp4861
aa(lp4862
(I4
(lp4863
I0
aI1
a(lp4864
I2
atp4865
aa(lp4866
(I7
(lp4867
I0
a(lp4868
I7
aI8
atp4869
aa(lp4870
(I3
(lp4871
I16
aI17
a(lp4872
I22
atp4873
a(I3
(lp4874
I19
aI20
ag4872
tp4875
aa(lp4876
(I1
(lp4877
I10
aI11
aI12
a(lp4878
I29
aI30
atp4879
aa(lp4880
(I3
(lp4881
I2
a(lp4882
I18
aI19
atp4883
aa(lp4884
(I3
(lp4885
I15
a(lp4886
I17
atp4887
a(I3
(lp4888
I23
a(lp4889
I25
atp4890
aa(lp4891
(I1
(lp4892
I5
aI6
a(lp4893
I25
aI26
atp4894
aa(lp4895
(I8
(lp4896
I0
a(lp4897
I3
aI4
atp4898
aa(lp4899
(I3
(lp4900
I49
a(lp4901
I51
atp4902
a(I3
(lp4903
I57
a(lp4904
I59
atp4905
aa(lp4906
(I7
(lp4907
I30
aI31
a(lp4908
I33
atp4909
aa(lp4910
(I4
(lp4911
I0
a(lp4912
I1
aI2
atp4913
aa(lp4914
(I6
(lp4915
I2
aI3
a(lp4916
I5
atp4917
aa(lp4918
(I6
(lp4919
I0
aI1
a(lp4920
I4
atp4921
a(I1
g4920
(lp4922
I16
atp4923
aa(lp4924
(I4
(lp4925
I11
a(lp4926
I13
aI14
aI15
atp4927
aa(lp4928
(I6
(lp4929
I10
aI11
a(lp4930
I16
atp4931
a(I7
g4929
(lp4932
I21
aI22
aI23
atp4933
a(I4
g4930
g4932
tp4934
a(I4
g4930
(lp4935
I31
aI32
atp4936
a(I4
g4930
(lp4937
I34
atp4938
aa(lp4939
(I9
(lp4940
I3
aI4
aI5
a(lp4941
I10
aI11
aI12
aI13
aI14
atp4942
aa(lp4943
(I3
(lp4944
I5
a(lp4945
I7
atp4946
a(I3
(lp4947
I10
aI11
a(lp4948
I13
atp4949
aa(lp4950
(I9
(lp4951
I0
a(lp4952
I8
aI9
atp4953
aa(lp4954
(I9
(lp4955
I5
aI6
aI7
a(lp4956
I15
aI16
atp4957
aa(lp4958
(I6
(lp4959
I11
aI12
a(lp4960
I17
aI18
aI19
atp4961
aa(lp4962
(I9
(lp4963
I1
aI2
aI3
a(lp4964
I5
atp4965
aa(lp4966
(I4
(lp4967
I1
a(lp4968
I4
aI5
aI6
atp4969
a(I4
g4967
(lp4970
I8
atp4971
aa(lp4972
(I8
(lp4973
I21
aI22
aI23
a(lp4974
I34
aI35
atp4975
a(I8
(lp4976
I32
ag4974
tp4977
aa(lp4978
(I6
(lp4979
I16
aI17
aI18
a(lp4980
I21
atp4981
aa(lp4982
(I3
(lp4983
I0
aI1
a(lp4984
I3
atp4985
aa(lp4986
(I7
(lp4987
I1
aI2
a(lp4988
I4
aI5
aI6
aI7
aI8
atp4989
a(I6
g4987
(lp4990
I10
atp4991
a(I2
g4988
g4990
tp4992
aa(lp4993
(I4
(lp4994
I0
aI1
aI2
a(lp4995
I3
aI4
atp4996
aa(lp4997
(I3
(lp4998
I35
a(lp4999
I39
aI40
atp5000
aa(lp5001
(I7
(lp5002
I0
aI1
a(lp5003
I6
aI7
aI8
aI9
atp5004
aa(lp5005
(I1
(lp5006
I0
a(lp5007
I3
aI4
atp5008
aa(lp5009
(I6
(lp5010
I2
aI3
a(lp5011
I5
atp5012
a(I6
(lp5013
I20
aI21
a(lp5014
I23
atp5015
aa(lp5016
(I6
(lp5017
I0
aI1
a(lp5018
I30
aI31
aI32
atp5019
aa(lp5020
(I1
(lp5021
I28
a(lp5022
I31
aI32
atp5023
aa(lp5024
(I1
(lp5025
I11
a(lp5026
I16
aI17
atp5027
aa(lp5028
(I6
(lp5029
I0
aI1
a(lp5030
I10
atp5031
a(I6
g5029
(lp5032
I21
atp5033
aa(lp5034
(I10
(lp5035
I5
aI6
aI7
a(lp5036
I22
aI23
atp5037
aa(lp5038
(I3
(lp5039
I1
a(lp5040
I3
atp5041
a(I4
g5040
(lp5042
I8
atp5043
aa(lp5044
(I4
(lp5045
I6
aI7
a(lp5046
I14
atp5047
aa(lp5048
(I7
(lp5049
I29
aI30
aI31
a(lp5050
I36
atp5051
aa(lp5052
(I6
(lp5053
I5
aI6
a(lp5054
I10
aI11
atp5055
aa(lp5056
(I9
(lp5057
I21
aI22
aI23
a(lp5058
I26
aI27
atp5059
aa(lp5060
(I7
(lp5061
I18
aI19
a(lp5062
I31
aI32
aI33
atp5063
aa(lp5064
(I10
(lp5065
I16
aI17
aI18
aI19
a(lp5066
I23
aI24
aI25
atp5067
a(I10
g5066
(lp5068
I31
aI32
atp5069
aa(lp5070
(I10
(lp5071
I3
aI4
aI5
aI6
a(lp5072
I10
aI11
aI12
atp5073
aa(lp5074
(I10
(lp5075
I3
aI4
aI5
a(lp5076
I9
aI10
atp5077
aa(lp5078
(I2
(lp5079
I15
a(lp5080
I33
atp5081
aa(lp5082
(I6
(lp5083
I5
aI6
aI7
a(lp5084
I13
atp5085
aa(lp5086
(I4
(lp5087
I0
a(lp5088
I1
aI2
atp5089
aa(lp5090
(I6
(lp5091
I11
a(lp5092
I24
atp5093
a(I6
g5091
(lp5094
I37
atp5095
aa(lp5096
(I3
(lp5097
I0
a(lp5098
I2
atp5099
aa(lp5100
(I7
(lp5101
I16
aI17
aI18
a(lp5102
I26
aI27
aI28
aI29
aI30
aI31
atp5103
aa(lp5104
(I6
(lp5105
I5
aI6
a(lp5106
I10
aI11
aI12
aI13
atp5107
aa(lp5108
(I5
(lp5109
I2
a(lp5110
I8
atp5111
aa(lp5112
(I6
(lp5113
I0
aI1
aI2
a(lp5114
I5
aI6
atp5115
a(I7
g5113
(lp5116
I9
aI10
atp5117
aa(lp5118
(I5
(lp5119
I0
a(lp5120
I4
atp5121
a(I10
(lp5122
I17
aI18
aI19
aI20
a(lp5123
I25
aI26
atp5124
aa(lp5125
(I4
(lp5126
I8
aI9
a(lp5127
I10
aI11
aI12
aI13
aI14
atp5128
aa(lp5129
(I10
(lp5130
I0
a(lp5131
I4
aI5
aI6
atp5132
aa(lp5133
(I6
(lp5134
I6
aI7
a(lp5135
I11
aI12
aI13
atp5136
aa(lp5137
(I6
(lp5138
I72
aI73
a(lp5139
I88
atp5140
aa(lp5141
(I7
(lp5142
I27
aI28
a(lp5143
I33
aI34
aI35
aI36
atp5144
a(I6
g5142
(lp5145
I38
atp5146
a(I2
g5143
g5145
tp5147
aa(lp5148
(I8
(lp5149
I1
a(lp5150
I3
aI4
aI5
atp5151
aa(lp5152
(I4
(lp5153
I7
a(lp5154
I8
atp5155
aa(lp5156
(I6
(lp5157
I4
aI5
a(lp5158
I9
aI10
aI11
aI12
atp5159
aa(lp5160
(I4
(lp5161
I1
a(lp5162
I2
aI3
aI4
atp5163
aa(lp5164
(I4
(lp5165
I2
a(lp5166
I4
aI5
atp5167
a(I2
g5166
(lp5168
I7
atp5169
a(I4
(lp5170
I9
a(lp5171
I11
aI12
atp5172
a(I1
(lp5173
I26
a(lp5174
I28
aI29
atp5175
a(I1
g5173
(lp5176
I31
aI32
atp5177
aa(lp5178
(I6
(lp5179
I18
aI19
a(lp5180
I21
aI22
atp5181
aa(lp5182
(I3
(lp5183
I9
a(lp5184
I13
atp5185
a(I3
g5183
(lp5186
I18
atp5187
a(I3
(lp5188
I11
ag5184
tp5189
a(I3
g5188
g5186
tp5190
a(I3
g5184
g5186
tp5191
aa(lp5192
(I5
(lp5193
I23
a(lp5194
I27
aI28
atp5195
aa(lp5196
(I6
(lp5197
I17
aI18
a(lp5198
I56
atp5199
aa(lp5200
(I9
(lp5201
I10
a(lp5202
I26
atp5203
aa(lp5204
(I4
(lp5205
I0
a(lp5206
I1
atp5207
aa(lp5208
(I7
(lp5209
I27
aI28
a(lp5210
I30
aI31
aI32
atp5211
a(I6
g5209
(lp5212
I45
atp5213
a(I2
g5210
g5212
tp5214
aa(lp5215
(I8
(lp5216
I0
a(lp5217
I2
aI3
atp5218
aa(lp5219
(I6
(lp5220
I19
aI20
a(lp5221
I22
atp5222
a(I6
g5220
(lp5223
I28
atp5224
a(I3
g5221
g5223
tp5225
aa(lp5226
(I1
(lp5227
I16
aI17
a(lp5228
I31
aI32
aI33
aI34
atp5229
a(I1
g5227
(lp5230
I36
aI37
aI38
atp5231
aa(lp5232
(I6
(lp5233
I0
aI1
a(lp5234
I3
atp5235
aa(lp5236
(I6
(lp5237
I24
aI25
a(lp5238
I33
atp5239
aa(lp5240
(I3
(lp5241
I0
a(lp5242
I5
atp5243
aa(lp5244
(I9
(lp5245
I10
aI11
aI12
a(lp5246
I22
aI23
aI24
aI25
aI26
atp5247
aa(lp5248
(I2
(lp5249
I6
aI7
aI8
a(lp5250
I11
atp5251
aa(lp5252
(I3
(lp5253
I0
aI1
a(lp5254
I3
atp5255
aa(lp5256
(I6
(lp5257
I4
aI5
a(lp5258
I9
aI10
aI11
atp5259
aa(lp5260
(I6
(lp5261
I0
aI1
a(lp5262
I10
atp5263
a(I6
g5261
(lp5264
I20
aI21
aI22
aI23
atp5265
aa(lp5266
(I9
(lp5267
I0
aI1
aI2
a(lp5268
I11
aI12
atp5269
aa(lp5270
(I10
(lp5271
I22
aI23
aI24
aI25
a(lp5272
I34
aI35
atp5273
a(I10
(lp5274
I30
ag5272
tp5275
aa(lp5276
(I4
(lp5277
I3
aI4
a(lp5278
I21
aI22
aI23
aI24
aI25
aI26
atp5279
a(I4
(lp5280
I7
aI8
ag5278
tp5281
a(I2
g5278
(lp5282
I31
aI32
atp5283
a(I4
g5277
(lp5284
I28
atp5285
a(I4
g5280
g5284
tp5286
a(I2
g5284
g5282
tp5287
a(I4
g5277
(lp5288
I45
atp5289
a(I4
g5280
g5288
tp5290
a(I4
g5282
g5288
tp5291
aa(lp5292
(I6
(lp5293
I13
aI14
a(lp5294
I21
atp5295
a(I3
(lp5296
I17
aI18
aI19
ag5294
tp5297
aa(lp5298
(I4
(lp5299
I1
a(lp5300
I2
atp5301
aa(lp5302
(I9
(lp5303
I5
aI6
a(lp5304
I14
aI15
aI16
atp5305
a(I10
(lp5306
I10
aI11
aI12
ag5304
tp5307
aa(lp5308
(I5
(lp5309
I4
a(lp5310
I14
atp5311
a(I5
g5309
(lp5312
I16
atp5313
a(I5
g5309
(lp5314
I18
atp5315
a(I5
g5309
(lp5316
I20
atp5317
aa(lp5318
(I6
(lp5319
I11
aI12
aI13
a(lp5320
I18
aI19
aI20
atp5321
aa(lp5322
(I4
(lp5323
I1
a(lp5324
I2
aI3
atp5325
aa(lp5326
(I8
(lp5327
I9
aI10
a(lp5328
I13
aI14
atp5329
aa(lp5330
(I6
(lp5331
I3
aI4
a(lp5332
I8
atp5333
a(I7
g5331
(lp5334
I21
aI22
atp5335
aa(lp5336
(I8
(lp5337
I0
aI1
aI2
a(lp5338
I4
aI5
atp5339
aa(lp5340
(I9
(lp5341
I14
aI15
aI16
a(lp5342
I26
aI27
atp5343
aa(lp5344
(I6
(lp5345
I0
aI1
a(lp5346
I3
atp5347
aa(lp5348
(I1
(lp5349
I1
a(lp5350
I5
aI6
atp5351
aa(lp5352
(I6
(lp5353
I16
aI17
a(lp5354
I19
atp5355
aa(lp5356
(I4
(lp5357
I27
a(lp5358
I28
aI29
aI30
aI31
aI32
atp5359
a(I4
g5357
(lp5360
I34
atp5361
a(I4
g5357
(lp5362
I38
aI39
aI40
atp5363
aa(lp5364
(I10
(lp5365
I0
a(lp5366
I32
aI33
aI34
atp5367
aa(lp5368
(I7
(lp5369
I1
aI2
a(lp5370
I16
aI17
aI18
aI19
aI20
atp5371
aa(lp5372
(I6
(lp5373
I0
aI1
aI2
a(lp5374
I7
atp5375
a(I6
g5373
(lp5376
I9
atp5377
a(I3
g5374
g5376
tp5378
aa(lp5379
(I7
(lp5380
I34
aI35
a(lp5381
I41
aI42
aI43
atp5382
a(I7
g5380
(lp5383
I45
atp5384
aa(lp5385
(I7
(lp5386
I1
aI2
a(lp5387
I6
atp5388
aa(lp5389
(I6
(lp5390
I8
aI9
a(lp5391
I25
atp5392
aa(lp5393
(I2
(lp5394
I0
aI1
a(lp5395
I4
atp5396
aa(lp5397
(I4
(lp5398
I3
a(lp5399
I8
atp5400
a(I1
g5398
(lp5401
I15
aI16
atp5402
aa(lp5403
(I6
(lp5404
I12
aI13
a(lp5405
I27
atp5406
aa(lp5407
(I3
(lp5408
I9
aI10
a(lp5409
I12
atp5410
aa(lp5411
(I3
(lp5412
I0
aI1
a(lp5413
I3
atp5414
a(I3
g5412
(lp5415
I5
atp5416
a(I3
g5413
g5415
tp5417
a(I3
(lp5418
I8
aI9
a(lp5419
I11
atp5420
aa(lp5421
(I8
(lp5422
I3
a(lp5423
I15
aI16
atp5424
aa(lp5425
(I2
(lp5426
I6
aI7
a(lp5427
I10
atp5428
a(I2
(lp5429
I13
a(lp5430
I15
atp5431
aa(lp5432
(I2
(lp5433
I5
aI6
aI7
a(lp5434
I9
atp5435
aa(lp5436
(I6
(lp5437
I5
aI6
a(lp5438
I13
aI14
aI15
atp5439
a(I6
(lp5440
I9
ag5438
tp5441
aa(lp5442
(I7
(lp5443
I27
aI28
aI29
a(lp5444
I45
aI46
aI47
aI48
aI49
atp5445
aa(lp5446
(I3
(lp5447
I0
aI1
a(lp5448
I3
atp5449
a(I3
g5447
(lp5450
I5
atp5451
a(I3
g5448
g5450
tp5452
aa(lp5453
(I3
(lp5454
I0
aI1
aI2
aI3
a(lp5455
I5
aI6
atp5456
a(I3
g5454
(lp5457
I8
atp5458
a(I3
g5455
g5457
tp5459
aa(lp5460
(I6
(lp5461
I9
aI10
aI11
a(lp5462
I16
aI17
aI18
atp5463
aa(lp5464
(I6
(lp5465
I0
aI1
aI2
a(lp5466
I15
aI16
aI17
aI18
atp5467
aa(lp5468
(I2
(lp5469
I28
aI29
aI30
a(lp5470
I32
atp5471
aa(lp5472
(I10
(lp5473
I0
a(lp5474
I4
aI5
aI6
atp5475
aa(lp5476
(I8
(lp5477
I32
aI33
aI34
aI35
a(lp5478
I37
aI38
aI39
atp5479
aa(lp5480
(I3
(lp5481
I2
a(lp5482
I4
atp5483
aa(lp5484
(I9
(lp5485
I3
aI4
aI5
a(lp5486
I20
aI21
aI22
aI23
atp5487
a(I3
(lp5488
I9
a(lp5489
I11
atp5490
aa(lp5491
(I7
(lp5492
I12
aI13
a(lp5493
I17
aI18
aI19
aI20
aI21
atp5494
aa(lp5495
(I9
(lp5496
I6
aI7
aI8
a(lp5497
I16
aI17
atp5498
aa(lp5499
(I3
(lp5500
I0
a(lp5501
I2
aI3
atp5502
aa(lp5503
(I7
(lp5504
I0
a(lp5505
I6
aI7
atp5506
a(I7
(lp5507
I18
a(lp5508
I38
aI39
atp5509
a(I8
(lp5510
I48
aI49
a(lp5511
I57
aI58
atp5512
aa(lp5513
(I9
(lp5514
I2
aI3
a(lp5515
I43
aI44
atp5516
a(I9
(lp5517
I5
aI6
ag5515
tp5518
aa(lp5519
(I6
(lp5520
I8
aI9
aI10
aI11
a(lp5521
I18
aI19
aI20
aI21
atp5522
aa(lp5523
(I7
(lp5524
I33
aI34
a(lp5525
I40
atp5526
a(I7
(lp5527
I48
aI49
a(lp5528
I55
atp5529
aa(lp5530
(I4
(lp5531
I8
a(lp5532
I9
aI10
atp5533
aa(lp5534
(I3
(lp5535
I21
a(lp5536
I24
atp5537
aa(lp5538
(I10
(lp5539
I0
aI1
aI2
aI3
a(lp5540
I7
aI8
aI9
atp5541
aa(lp5542
(I10
(lp5543
I5
a(lp5544
I36
aI37
aI38
atp5545
aa(lp5546
(I7
(lp5547
I0
a(lp5548
I9
atp5549
aa.